TN:
SF:/home/kln735/4test_lab/src/array.h
FN:112,122,_ZN8MyvectorIiE4MDELEi
FN:124,129,_ZNK8MyvectorINSt7__cxx1112basic_stringIcSt11char_traitsIcESaIcEEEE4MGETEi
FN:124,129,_ZNK8MyvectorIiE4MGETEi
FN:131,136,_ZN8MyvectorIiE4MSETEii
FN:138,149,_ZN8MyvectorIiE6resizeEi
FN:15,17,_ZN8MyvectorINSt7__cxx1112basic_stringIcSt11char_traitsIcESaIcEEEEC2Ev
FN:15,17,_ZN8MyvectorIiEC2Ev
FN:151,153,_ZNK8MyvectorINSt7__cxx1112basic_stringIcSt11char_traitsIcESaIcEEEE4sizeEv
FN:151,153,_ZNK8MyvectorIiE4sizeEv
FN:155,157,_ZNK8MyvectorIiE10memory_useEv
FN:159,164,_ZNK8MyvectorIiE5printEv
FN:19,26,_ZN8MyvectorIiEC2ERKS0_
FN:28,37,_ZN8MyvectorINSt7__cxx1112basic_stringIcSt11char_traitsIcESaIcEEEEC2ESt16initializer_listIS5_E
FN:39,50,_ZN8MyvectorIiEaSERKS0_
FN:52,57,_ZNK8MyvectorINSt7__cxx1112basic_stringIcSt11char_traitsIcESaIcEEEEixEi
FN:52,57,_ZNK8MyvectorIiEixEi
FN:58,60,_ZN8MyvectorINSt7__cxx1112basic_stringIcSt11char_traitsIcESaIcEEEED2Ev
FN:58,60,_ZN8MyvectorIiED2Ev
FN:62,64,_ZN8MyvectorIiE5beginEv
FN:66,68,_ZN8MyvectorIiE3endEv
FN:72,85,_ZN8MyvectorINSt7__cxx1112basic_stringIcSt11char_traitsIcESaIcEEEE5MPUSHES5_
FN:72,85,_ZN8MyvectorIiE5MPUSHEi
FN:87,110,_ZN8MyvectorINSt7__cxx1112basic_stringIcSt11char_traitsIcESaIcEEEE5MPUSHES5_i
FN:87,110,_ZN8MyvectorIiE5MPUSHEii
FNDA:4,_ZN8MyvectorIiE4MDELEi
FNDA:13,_ZNK8MyvectorINSt7__cxx1112basic_stringIcSt11char_traitsIcESaIcEEEE4MGETEi
FNDA:28,_ZNK8MyvectorIiE4MGETEi
FNDA:3,_ZN8MyvectorIiE4MSETEii
FNDA:2,_ZN8MyvectorIiE6resizeEi
FNDA:4,_ZN8MyvectorINSt7__cxx1112basic_stringIcSt11char_traitsIcESaIcEEEEC2Ev
FNDA:17,_ZN8MyvectorIiEC2Ev
FNDA:20,_ZNK8MyvectorINSt7__cxx1112basic_stringIcSt11char_traitsIcESaIcEEEE4sizeEv
FNDA:11,_ZNK8MyvectorIiE4sizeEv
FNDA:7,_ZNK8MyvectorIiE10memory_useEv
FNDA:1,_ZNK8MyvectorIiE5printEv
FNDA:1,_ZN8MyvectorIiEC2ERKS0_
FNDA:1,_ZN8MyvectorINSt7__cxx1112basic_stringIcSt11char_traitsIcESaIcEEEEC2ESt16initializer_listIS5_E
FNDA:1,_ZN8MyvectorIiEaSERKS0_
FNDA:6,_ZNK8MyvectorINSt7__cxx1112basic_stringIcSt11char_traitsIcESaIcEEEEixEi
FNDA:9,_ZNK8MyvectorIiEixEi
FNDA:5,_ZN8MyvectorINSt7__cxx1112basic_stringIcSt11char_traitsIcESaIcEEEED2Ev
FNDA:18,_ZN8MyvectorIiED2Ev
FNDA:3,_ZN8MyvectorIiE5beginEv
FNDA:6,_ZN8MyvectorIiE3endEv
FNDA:6,_ZN8MyvectorINSt7__cxx1112basic_stringIcSt11char_traitsIcESaIcEEEE5MPUSHES5_
FNDA:14,_ZN8MyvectorIiE5MPUSHEi
FNDA:6,_ZN8MyvectorINSt7__cxx1112basic_stringIcSt11char_traitsIcESaIcEEEE5MPUSHES5_i
FNDA:10,_ZN8MyvectorIiE5MPUSHEii
FNF:24
FNH:24
BRDA:16,0,0,21
BRDA:16,0,1,0
BRDA:16,0,2,4
BRDA:16,0,3,4
BRDA:22,0,0,1
BRDA:22,0,1,0
BRDA:23,0,0,3
BRDA:23,0,1,1
BRDA:31,0,0,1
BRDA:31,0,1,0
BRDA:31,0,2,12
BRDA:31,0,3,1
BRDA:34,0,0,6
BRDA:34,0,1,1
BRDA:40,0,0,1
BRDA:40,0,1,0
BRDA:41,0,0,1
BRDA:41,0,1,0
BRDA:44,0,0,1
BRDA:44,0,1,0
BRDA:45,0,0,3
BRDA:45,0,1,1
BRDA:53,0,0,15
BRDA:53,0,1,0
BRDA:53,0,2,0
BRDA:53,0,3,15
BRDA:54,0,0,-
BRDA:54,e0,1,-
BRDA:59,0,0,23
BRDA:59,0,1,0
BRDA:59,0,2,30
BRDA:59,0,3,5
BRDA:73,0,0,11
BRDA:73,0,1,9
BRDA:74,0,0,11
BRDA:74,0,1,0
BRDA:74,0,2,14
BRDA:74,0,3,3
BRDA:76,0,0,22
BRDA:76,0,1,11
BRDA:79,0,0,11
BRDA:79,0,1,0
BRDA:79,0,2,7
BRDA:79,0,3,3
BRDA:89,0,0,16
BRDA:89,0,1,0
BRDA:89,0,2,0
BRDA:89,0,3,16
BRDA:90,0,0,-
BRDA:90,e0,1,-
BRDA:93,0,0,8
BRDA:93,0,1,8
BRDA:94,0,0,8
BRDA:94,0,1,0
BRDA:94,0,2,14
BRDA:94,0,3,3
BRDA:96,0,0,19
BRDA:96,0,1,8
BRDA:99,0,0,8
BRDA:99,0,1,0
BRDA:99,0,2,7
BRDA:99,0,3,3
BRDA:104,0,0,20
BRDA:104,0,1,16
BRDA:113,0,0,3
BRDA:113,0,1,1
BRDA:113,0,2,1
BRDA:113,0,3,2
BRDA:114,0,0,2
BRDA:114,e0,1,0
BRDA:117,0,0,2
BRDA:117,0,1,2
BRDA:125,0,0,41
BRDA:125,0,1,0
BRDA:125,0,2,41
BRDA:125,0,3,0
BRDA:128,0,0,-
BRDA:128,e0,1,-
BRDA:132,0,0,3
BRDA:132,0,1,0
BRDA:132,0,2,0
BRDA:132,0,3,3
BRDA:133,0,0,-
BRDA:133,e0,1,-
BRDA:139,0,0,2
BRDA:139,0,1,0
BRDA:140,0,0,6
BRDA:140,0,1,2
BRDA:143,0,0,2
BRDA:143,0,1,0
BRDA:146,0,0,1
BRDA:146,0,1,1
BRDA:160,0,0,5
BRDA:160,0,1,1
BRF:94
BRH:64
DA:15,21
DA:16,25
DA:17,21
DA:19,1
DA:20,1
DA:21,1
DA:22,1
DA:23,4
DA:24,3
DA:26,1
DA:28,1
DA:29,1
DA:30,1
DA:31,13
DA:33,1
DA:34,7
DA:35,6
DA:37,1
DA:39,1
DA:40,1
DA:41,1
DA:42,1
DA:43,1
DA:44,1
DA:45,4
DA:46,3
DA:49,1
DA:52,15
DA:53,15
DA:54,0
DA:56,15
DA:58,23
DA:59,53
DA:60,23
DA:62,3
DA:63,3
DA:66,6
DA:67,6
DA:72,20
DA:73,20
DA:74,25
DA:76,33
DA:77,22
DA:79,18
DA:80,11
DA:81,11
DA:83,20
DA:84,20
DA:85,20
DA:87,16
DA:89,16
DA:90,0
DA:93,16
DA:94,22
DA:96,27
DA:97,19
DA:99,15
DA:100,8
DA:101,8
DA:104,36
DA:105,20
DA:108,16
DA:109,16
DA:110,16
DA:112,4
DA:113,4
DA:114,2
DA:117,4
DA:118,2
DA:121,2
DA:122,2
DA:124,41
DA:125,41
DA:126,41
DA:128,0
DA:131,3
DA:132,3
DA:133,0
DA:135,3
DA:136,3
DA:138,2
DA:139,2
DA:140,8
DA:141,6
DA:143,2
DA:144,2
DA:145,2
DA:146,2
DA:147,1
DA:149,2
DA:151,31
DA:152,31
DA:155,7
DA:156,7
DA:159,1
DA:160,6
DA:161,5
DA:163,1
DA:164,1
LF:99
LH:95
end_of_record
TN:
SF:/home/kln735/4test_lab/src/fbt.h
FN:104,131,_ZN3FBTIiE3AddEi
FN:12,12,_ZN5QueueIPN3FBTIiE4nodeEE4NodeC2ES3_
FN:180,193,_ZN3FBTIiE9findPlaceEi
FN:19,19,_ZN5QueueIPN3FBTIiE4nodeEEC2Ev
FN:195,207,_ZN3FBTIiE6isFullEv
FN:21,27,_ZN5QueueIPN3FBTIiE4nodeEEC2ERKS4_
FN:29,35,_ZN5QueueIPN3FBTIiE4nodeEED2Ev
FN:37,37,_ZNK5QueueIPN3FBTIiE4nodeEE8is_emptyEv
FN:39,48,_ZN5QueueIPN3FBTIiE4nodeEE7enqueueES3_
FN:50,60,_ZN5QueueIPN3FBTIiE4nodeEE7dequeueEv
FN:62,67,_ZNK5QueueIPN3FBTIiE4nodeEE5frontEv
FN:80,80,_ZN3FBTIiE4nodeC2Ei
FN:88,92,_ZN3FBTIiEC2Ei
FN:94,102,_ZN3FBTIiED2Ev
FNDA:9,_ZN3FBTIiE3AddEi
FNDA:83,_ZN5QueueIPN3FBTIiE4nodeEE4NodeC2ES3_
FNDA:16,_ZN3FBTIiE9findPlaceEi
FNDA:10,_ZN5QueueIPN3FBTIiE4nodeEEC2Ev
FNDA:2,_ZN3FBTIiE6isFullEv
FNDA:23,_ZN5QueueIPN3FBTIiE4nodeEEC2ERKS4_
FNDA:33,_ZN5QueueIPN3FBTIiE4nodeEED2Ev
FNDA:261,_ZNK5QueueIPN3FBTIiE4nodeEE8is_emptyEv
FNDA:83,_ZN5QueueIPN3FBTIiE4nodeEE7enqueueES3_
FNDA:46,_ZN5QueueIPN3FBTIiE4nodeEE7dequeueEv
FNDA:58,_ZNK5QueueIPN3FBTIiE4nodeEE5frontEv
FNDA:14,_ZN3FBTIiE4nodeC2Ei
FNDA:5,_ZN3FBTIiEC2Ei
FNDA:5,_ZN3FBTIiED2Ev
FNF:14
FNH:14
BRDA:23,0,0,55
BRDA:23,0,1,23
BRDA:30,0,0,37
BRDA:30,0,1,33
BRDA:33,0,0,0
BRDA:33,0,1,37
BRDA:41,0,0,33
BRDA:41,0,1,50
BRDA:51,0,0,0
BRDA:51,0,1,46
BRDA:52,0,0,-
BRDA:52,e0,1,-
BRDA:56,0,0,46
BRDA:56,0,1,0
BRDA:57,0,0,16
BRDA:57,0,1,30
BRDA:63,0,0,0
BRDA:63,0,1,58
BRDA:64,0,0,-
BRDA:64,e0,1,-
BRDA:89,0,0,5
BRDA:89,e0,1,0
BRDA:90,0,0,5
BRDA:90,e0,1,0
BRDA:91,0,0,5
BRDA:91,e0,1,0
BRDA:97,0,0,14
BRDA:97,0,1,5
BRDA:100,0,0,0
BRDA:100,0,1,14
BRDA:107,0,0,0
BRDA:107,e0,1,9
BRDA:109,0,0,0
BRDA:109,0,1,9
BRDA:113,0,0,0
BRDA:113,0,1,9
BRDA:114,0,0,0
BRDA:114,e0,1,0
BRDA:121,0,0,5
BRDA:121,0,1,4
BRDA:123,0,0,4
BRDA:123,0,1,0
BRDA:127,0,0,0
BRDA:127,e0,1,0
BRDA:181,0,0,16
BRDA:181,e0,1,0
BRDA:183,0,0,30
BRDA:183,0,1,10
BRDA:184,0,0,30
BRDA:184,e0,1,0
BRDA:185,0,0,6
BRDA:185,0,1,24
BRDA:188,0,0,24
BRDA:188,e0,1,0
BRDA:191,0,0,10
BRDA:191,e0,1,0
BRDA:196,0,0,2
BRDA:196,e0,1,0
BRDA:198,0,0,5
BRDA:198,0,1,1
BRDA:199,0,0,5
BRDA:199,e0,1,0
BRDA:200,0,0,2
BRDA:200,0,1,3
BRDA:200,0,2,2
BRDA:200,0,3,0
BRDA:201,0,0,3
BRDA:201,0,1,2
BRDA:201,0,2,1
BRDA:201,0,3,2
BRDA:204,0,0,4
BRDA:204,e0,1,0
BRF:72
BRH:44
DA:12,83
DA:19,10
DA:21,23
DA:22,23
DA:23,78
DA:24,55
DA:25,55
DA:27,23
DA:29,33
DA:30,103
DA:31,37
DA:32,37
DA:33,37
DA:35,33
DA:37,261
DA:39,83
DA:40,83
DA:41,83
DA:42,33
DA:45,50
DA:46,50
DA:48,83
DA:50,46
DA:51,46
DA:52,0
DA:54,46
DA:55,46
DA:56,46
DA:57,46
DA:58,16
DA:60,46
DA:62,58
DA:63,58
DA:64,0
DA:66,58
DA:80,14
DA:88,5
DA:89,5
DA:90,5
DA:91,5
DA:92,5
DA:94,5
DA:96,5
DA:97,24
DA:98,14
DA:99,14
DA:100,14
DA:102,5
DA:104,9
DA:107,9
DA:108,0
DA:109,9
DA:113,9
DA:114,0
DA:117,9
DA:118,9
DA:119,9
DA:121,9
DA:122,5
DA:123,4
DA:124,4
DA:125,4
DA:127,0
DA:130,9
DA:180,16
DA:181,16
DA:183,40
DA:184,30
DA:185,30
DA:186,6
DA:188,24
DA:191,10
DA:193,16
DA:195,2
DA:196,2
DA:198,6
DA:199,5
DA:200,5
DA:201,5
DA:202,1
DA:204,4
DA:206,1
DA:207,2
LF:83
LH:78
end_of_record
TN:
SF:/home/kln735/4test_lab/src/flist.h
FN:111,127,_ZN11ForwardListINSt7__cxx1112basic_stringIcSt11char_traitsIcESaIcEEEE7deltailEv
FN:129,164,_ZN11ForwardListINSt7__cxx1112basic_stringIcSt11char_traitsIcESaIcEEEE6removeES5_
FN:16,16,_ZN11ForwardListINSt7__cxx1112basic_stringIcSt11char_traitsIcESaIcEEEE4NodeC2ES5_
FN:167,179,_ZNK11ForwardListINSt7__cxx1112basic_stringIcSt11char_traitsIcESaIcEEEE5printEv
FN:23,23,_ZN11ForwardListINSt7__cxx1112basic_stringIcSt11char_traitsIcESaIcEEEEC2Ev
FN:25,33,_ZN11ForwardListINSt7__cxx1112basic_stringIcSt11char_traitsIcESaIcEEEED2Ev
FN:35,37,_ZNK11ForwardListINSt7__cxx1112basic_stringIcSt11char_traitsIcESaIcEEEE8is_emptyEv
FN:39,48,_ZN11ForwardListINSt7__cxx1112basic_stringIcSt11char_traitsIcESaIcEEEE7addtailES5_
FN:50,59,_ZN11ForwardListINSt7__cxx1112basic_stringIcSt11char_traitsIcESaIcEEEE7addheadES5_
FN:61,78,_ZNK11ForwardListINSt7__cxx1112basic_stringIcSt11char_traitsIcESaIcEEEE3getEm
FN:79,95,_ZN11ForwardListINSt7__cxx1112basic_stringIcSt11char_traitsIcESaIcEEEE6searchES5_
FN:97,109,_ZN11ForwardListINSt7__cxx1112basic_stringIcSt11char_traitsIcESaIcEEEE7delheadEv
FNDA:4,_ZN11ForwardListINSt7__cxx1112basic_stringIcSt11char_traitsIcESaIcEEEE7deltailEv
FNDA:3,_ZN11ForwardListINSt7__cxx1112basic_stringIcSt11char_traitsIcESaIcEEEE6removeES5_
FNDA:17,_ZN11ForwardListINSt7__cxx1112basic_stringIcSt11char_traitsIcESaIcEEEE4NodeC2ES5_
FNDA:1,_ZNK11ForwardListINSt7__cxx1112basic_stringIcSt11char_traitsIcESaIcEEEE5printEv
FNDA:4,_ZN11ForwardListINSt7__cxx1112basic_stringIcSt11char_traitsIcESaIcEEEEC2Ev
FNDA:4,_ZN11ForwardListINSt7__cxx1112basic_stringIcSt11char_traitsIcESaIcEEEED2Ev
FNDA:32,_ZNK11ForwardListINSt7__cxx1112basic_stringIcSt11char_traitsIcESaIcEEEE8is_emptyEv
FNDA:7,_ZN11ForwardListINSt7__cxx1112basic_stringIcSt11char_traitsIcESaIcEEEE7addtailES5_
FNDA:10,_ZN11ForwardListINSt7__cxx1112basic_stringIcSt11char_traitsIcESaIcEEEE7addheadES5_
FNDA:12,_ZNK11ForwardListINSt7__cxx1112basic_stringIcSt11char_traitsIcESaIcEEEE3getEm
FNDA:2,_ZN11ForwardListINSt7__cxx1112basic_stringIcSt11char_traitsIcESaIcEEEE6searchES5_
FNDA:3,_ZN11ForwardListINSt7__cxx1112basic_stringIcSt11char_traitsIcESaIcEEEE7delheadEv
FNF:12
FNH:12
BRDA:27,0,0,7
BRDA:27,0,1,4
BRDA:29,0,0,7
BRDA:29,0,1,0
BRDA:40,0,0,7
BRDA:40,e0,1,0
BRDA:40,0,2,7
BRDA:40,e0,3,0
BRDA:40,0,4,0
BRDA:40,0,5,0
BRDA:41,0,0,2
BRDA:41,0,1,5
BRDA:51,0,0,10
BRDA:51,e0,1,0
BRDA:51,0,2,10
BRDA:51,e0,3,0
BRDA:51,0,4,0
BRDA:51,0,5,0
BRDA:52,0,0,2
BRDA:52,0,1,8
BRDA:69,0,0,28
BRDA:69,0,1,0
BRDA:70,0,0,12
BRDA:70,0,1,16
BRDA:77,0,0,-
BRDA:77,e0,1,-
BRDA:80,0,0,0
BRDA:80,0,1,2
BRDA:81,0,0,-
BRDA:81,e0,1,-
BRDA:85,0,0,4
BRDA:85,0,1,0
BRDA:86,0,0,2
BRDA:86,0,1,2
BRDA:98,0,0,0
BRDA:98,0,1,3
BRDA:99,0,0,-
BRDA:99,e0,1,-
BRDA:101,0,0,1
BRDA:101,0,1,2
BRDA:102,0,0,1
BRDA:102,0,1,0
BRDA:108,0,0,2
BRDA:108,0,1,0
BRDA:112,0,0,0
BRDA:112,0,1,4
BRDA:113,0,0,-
BRDA:113,e0,1,-
BRDA:115,0,0,1
BRDA:115,0,1,3
BRDA:116,0,0,1
BRDA:116,0,1,0
BRDA:121,0,0,3
BRDA:121,0,1,3
BRDA:124,0,0,3
BRDA:124,0,1,0
BRDA:130,0,0,0
BRDA:130,0,1,3
BRDA:131,0,0,-
BRDA:131,e0,1,-
BRDA:134,0,0,1
BRDA:134,0,1,2
BRDA:137,0,0,0
BRDA:137,0,1,1
BRDA:140,0,0,1
BRDA:140,0,1,0
BRDA:146,0,0,6
BRDA:146,0,1,0
BRDA:146,0,2,4
BRDA:146,0,3,2
BRDA:146,0,4,4
BRDA:146,0,5,2
BRDA:151,0,0,0
BRDA:151,0,1,2
BRDA:156,0,0,1
BRDA:156,0,1,1
BRDA:160,0,0,2
BRDA:160,0,1,0
BRDA:163,0,0,2
BRDA:163,0,1,0
BRDA:168,0,0,0
BRDA:168,0,1,1
BRDA:174,0,0,6
BRDA:174,0,1,1
BRF:84
BRH:48
DA:16,17
DA:23,4
DA:25,4
DA:26,4
DA:27,11
DA:28,7
DA:29,7
DA:30,7
DA:32,4
DA:33,4
DA:35,32
DA:36,32
DA:39,7
DA:40,7
DA:41,7
DA:42,2
DA:43,2
DA:44,2
DA:46,5
DA:47,5
DA:50,10
DA:51,10
DA:52,10
DA:53,2
DA:54,2
DA:55,2
DA:57,8
DA:58,8
DA:61,12
DA:66,12
DA:67,12
DA:69,28
DA:70,28
DA:71,12
DA:73,16
DA:74,16
DA:77,0
DA:79,2
DA:80,2
DA:81,0
DA:84,2
DA:85,4
DA:86,4
DA:88,2
DA:90,2
DA:94,0
DA:97,3
DA:98,3
DA:99,0
DA:101,3
DA:102,1
DA:103,1
DA:104,1
DA:106,2
DA:107,2
DA:108,2
DA:111,4
DA:112,4
DA:113,0
DA:115,4
DA:116,1
DA:117,1
DA:118,1
DA:120,3
DA:121,6
DA:122,3
DA:124,3
DA:125,3
DA:126,3
DA:129,3
DA:130,3
DA:131,0
DA:134,3
DA:135,1
DA:136,1
DA:137,1
DA:138,0
DA:140,1
DA:141,1
DA:144,2
DA:145,2
DA:146,6
DA:147,4
DA:148,4
DA:151,2
DA:153,0
DA:156,2
DA:157,1
DA:160,2
DA:161,2
DA:163,2
DA:167,1
DA:168,1
DA:169,0
DA:170,0
DA:172,1
DA:174,7
DA:175,6
DA:176,6
DA:178,1
LF:100
LH:90
end_of_record
TN:
SF:/home/kln735/4test_lab/src/hash.h
FN:114,129,_ZNK9HashtableINSt7__cxx1112basic_stringIcSt11char_traitsIcESaIcEEES5_E5printEv
FN:114,129,_ZNK9HashtableIiiE5printEv
FN:16,16,_ZN9HashtableINSt7__cxx1112basic_stringIcSt11char_traitsIcESaIcEEES5_E4NodeC2ERKS5_S9_
FN:16,16,_ZN9HashtableIiiE4NodeC2ERKiS3_
FN:22,36,_ZNK9HashtableINSt7__cxx1112basic_stringIcSt11char_traitsIcESaIcEEES5_E12hashfunctionERKS5_
FN:22,36,_ZNK9HashtableIiiE12hashfunctionERKi
FN:41,46,_ZN9HashtableINSt7__cxx1112basic_stringIcSt11char_traitsIcESaIcEEES5_EC2Ei
FN:41,46,_ZN9HashtableIiiEC2Ei
FN:48,58,_ZN9HashtableINSt7__cxx1112basic_stringIcSt11char_traitsIcESaIcEEES5_ED2Ev
FN:48,58,_ZN9HashtableIiiED2Ev
FN:60,77,_ZN9HashtableINSt7__cxx1112basic_stringIcSt11char_traitsIcESaIcEEES5_E3addERKS5_S8_
FN:60,77,_ZN9HashtableIiiE3addERKiS2_
FN:79,91,_ZNK9HashtableINSt7__cxx1112basic_stringIcSt11char_traitsIcESaIcEEES5_E3getERKS5_
FN:79,91,_ZNK9HashtableIiiE3getERKi
FN:93,112,_ZN9HashtableINSt7__cxx1112basic_stringIcSt11char_traitsIcESaIcEEES5_E6removeERKS5_
FN:93,112,_ZN9HashtableIiiE6removeERKi
FNDA:1,_ZNK9HashtableINSt7__cxx1112basic_stringIcSt11char_traitsIcESaIcEEES5_E5printEv
FNDA:1,_ZNK9HashtableIiiE5printEv
FNDA:6,_ZN9HashtableINSt7__cxx1112basic_stringIcSt11char_traitsIcESaIcEEES5_E4NodeC2ERKS5_S9_
FNDA:3,_ZN9HashtableIiiE4NodeC2ERKiS3_
FNDA:14,_ZNK9HashtableINSt7__cxx1112basic_stringIcSt11char_traitsIcESaIcEEES5_E12hashfunctionERKS5_
FNDA:13,_ZNK9HashtableIiiE12hashfunctionERKi
FNDA:2,_ZN9HashtableINSt7__cxx1112basic_stringIcSt11char_traitsIcESaIcEEES5_EC2Ei
FNDA:2,_ZN9HashtableIiiEC2Ei
FNDA:2,_ZN9HashtableINSt7__cxx1112basic_stringIcSt11char_traitsIcESaIcEEES5_ED2Ev
FNDA:2,_ZN9HashtableIiiED2Ev
FNDA:7,_ZN9HashtableINSt7__cxx1112basic_stringIcSt11char_traitsIcESaIcEEES5_E3addERKS5_S8_
FNDA:4,_ZN9HashtableIiiE3addERKiS2_
FNDA:5,_ZNK9HashtableINSt7__cxx1112basic_stringIcSt11char_traitsIcESaIcEEES5_E3getERKS5_
FNDA:6,_ZNK9HashtableIiiE3getERKi
FNDA:2,_ZN9HashtableINSt7__cxx1112basic_stringIcSt11char_traitsIcESaIcEEES5_E6removeERKS5_
FNDA:3,_ZN9HashtableIiiE6removeERKi
FNF:16
FNH:16
BRDA:16,0,0,6
BRDA:16,e0,1,0
BRDA:27,0,0,52
BRDA:27,0,1,14
BRDA:42,0,0,4
BRDA:42,0,1,0
BRDA:43,0,0,30
BRDA:43,0,1,4
BRDA:49,0,0,30
BRDA:49,0,1,4
BRDA:51,0,0,4
BRDA:51,0,1,30
BRDA:54,0,0,4
BRDA:54,0,1,0
BRDA:57,0,0,4
BRDA:57,0,1,0
BRDA:65,0,0,7
BRDA:65,0,1,9
BRDA:66,0,0,2
BRDA:66,0,1,5
BRDA:74,0,0,6
BRDA:74,e0,1,0
BRDA:74,0,2,0
BRDA:74,0,3,0
BRDA:83,0,0,12
BRDA:83,0,1,5
BRDA:84,0,0,6
BRDA:84,0,1,6
BRDA:90,0,0,5
BRDA:90,e0,1,0
BRDA:98,0,0,7
BRDA:98,0,1,0
BRDA:99,0,0,5
BRDA:99,0,1,2
BRDA:100,0,0,4
BRDA:100,0,1,1
BRDA:105,0,0,5
BRDA:105,0,1,0
BRDA:111,0,0,-
BRDA:111,e0,1,-
BRDA:115,0,0,15
BRDA:115,0,1,2
BRDA:118,0,0,6
BRDA:118,0,1,9
BRDA:119,0,0,8
BRDA:119,0,1,6
BRDA:122,0,0,2
BRDA:122,0,1,6
BRF:48
BRH:36
DA:16,9
DA:22,27
DA:23,27
DA:27,66
DA:28,52
DA:32,13
DA:35,27
DA:41,4
DA:42,4
DA:43,34
DA:44,30
DA:46,4
DA:48,4
DA:49,34
DA:50,30
DA:51,34
DA:52,4
DA:53,4
DA:54,4
DA:57,4
DA:58,4
DA:60,11
DA:61,11
DA:62,11
DA:65,16
DA:66,7
DA:67,2
DA:68,2
DA:70,5
DA:74,9
DA:75,9
DA:76,9
DA:79,11
DA:80,11
DA:81,11
DA:83,17
DA:84,12
DA:85,6
DA:87,6
DA:90,5
DA:93,5
DA:94,5
DA:95,5
DA:96,5
DA:98,7
DA:99,7
DA:100,5
DA:101,4
DA:103,1
DA:105,5
DA:106,5
DA:108,2
DA:109,2
DA:111,0
DA:114,2
DA:115,17
DA:116,15
DA:117,15
DA:118,15
DA:119,14
DA:120,8
DA:121,8
DA:122,8
DA:123,2
DA:127,15
DA:129,2
LF:66
LH:65
end_of_record
TN:
SF:/home/kln735/4test_lab/src/llist.h
FN:107,141,_ZN10LinkedListINSt7__cxx1112basic_stringIcSt11char_traitsIcESaIcEEEE6removeES5_
FN:14,14,_ZN10LinkedListINSt7__cxx1112basic_stringIcSt11char_traitsIcESaIcEEEE4NodeC2ES5_
FN:143,158,_ZN10LinkedListINSt7__cxx1112basic_stringIcSt11char_traitsIcESaIcEEEE6searchES5_
FN:160,167,_ZNK10LinkedListINSt7__cxx1112basic_stringIcSt11char_traitsIcESaIcEEEE5printEv
FN:170,193,_ZNK10LinkedListINSt7__cxx1112basic_stringIcSt11char_traitsIcESaIcEEEE3getEi
FN:24,24,_ZN10LinkedListINSt7__cxx1112basic_stringIcSt11char_traitsIcESaIcEEEEC2Ev
FN:26,35,_ZN10LinkedListINSt7__cxx1112basic_stringIcSt11char_traitsIcESaIcEEEED2Ev
FN:38,40,_ZNK10LinkedListINSt7__cxx1112basic_stringIcSt11char_traitsIcESaIcEEEE8is_emptyEv
FN:43,45,_ZNK10LinkedListINSt7__cxx1112basic_stringIcSt11char_traitsIcESaIcEEEE4sizeEv
FN:47,59,_ZN10LinkedListINSt7__cxx1112basic_stringIcSt11char_traitsIcESaIcEEEE7addheadES5_
FN:61,73,_ZN10LinkedListINSt7__cxx1112basic_stringIcSt11char_traitsIcESaIcEEEE7addtailES5_
FN:75,89,_ZN10LinkedListINSt7__cxx1112basic_stringIcSt11char_traitsIcESaIcEEEE7delheadEv
FN:91,105,_ZN10LinkedListINSt7__cxx1112basic_stringIcSt11char_traitsIcESaIcEEEE7deltailEv
FNDA:3,_ZN10LinkedListINSt7__cxx1112basic_stringIcSt11char_traitsIcESaIcEEEE6removeES5_
FNDA:17,_ZN10LinkedListINSt7__cxx1112basic_stringIcSt11char_traitsIcESaIcEEEE4NodeC2ES5_
FNDA:2,_ZN10LinkedListINSt7__cxx1112basic_stringIcSt11char_traitsIcESaIcEEEE6searchES5_
FNDA:1,_ZNK10LinkedListINSt7__cxx1112basic_stringIcSt11char_traitsIcESaIcEEEE5printEv
FNDA:10,_ZNK10LinkedListINSt7__cxx1112basic_stringIcSt11char_traitsIcESaIcEEEE3getEi
FNDA:4,_ZN10LinkedListINSt7__cxx1112basic_stringIcSt11char_traitsIcESaIcEEEEC2Ev
FNDA:4,_ZN10LinkedListINSt7__cxx1112basic_stringIcSt11char_traitsIcESaIcEEEED2Ev
FNDA:24,_ZNK10LinkedListINSt7__cxx1112basic_stringIcSt11char_traitsIcESaIcEEEE8is_emptyEv
FNDA:1,_ZNK10LinkedListINSt7__cxx1112basic_stringIcSt11char_traitsIcESaIcEEEE4sizeEv
FNDA:10,_ZN10LinkedListINSt7__cxx1112basic_stringIcSt11char_traitsIcESaIcEEEE7addheadES5_
FNDA:7,_ZN10LinkedListINSt7__cxx1112basic_stringIcSt11char_traitsIcESaIcEEEE7addtailES5_
FNDA:3,_ZN10LinkedListINSt7__cxx1112basic_stringIcSt11char_traitsIcESaIcEEEE7delheadEv
FNDA:4,_ZN10LinkedListINSt7__cxx1112basic_stringIcSt11char_traitsIcESaIcEEEE7deltailEv
FNF:13
FNH:13
BRDA:28,0,0,7
BRDA:28,0,1,4
BRDA:30,0,0,7
BRDA:30,0,1,0
BRDA:48,0,0,10
BRDA:48,e0,1,0
BRDA:48,0,2,10
BRDA:48,e0,3,0
BRDA:48,0,4,0
BRDA:48,0,5,0
BRDA:49,0,0,1
BRDA:49,0,1,9
BRDA:62,0,0,7
BRDA:62,e0,1,0
BRDA:62,0,2,7
BRDA:62,e0,3,0
BRDA:62,0,4,0
BRDA:62,0,5,0
BRDA:63,0,0,3
BRDA:63,0,1,4
BRDA:76,0,0,0
BRDA:76,0,1,3
BRDA:77,0,0,-
BRDA:77,e0,1,-
BRDA:80,0,0,2
BRDA:80,0,1,1
BRDA:86,0,0,3
BRDA:86,0,1,0
BRDA:92,0,0,0
BRDA:92,0,1,4
BRDA:93,0,0,-
BRDA:93,e0,1,-
BRDA:96,0,0,3
BRDA:96,0,1,1
BRDA:102,0,0,4
BRDA:102,0,1,0
BRDA:108,0,0,0
BRDA:108,0,1,3
BRDA:109,0,0,-
BRDA:109,e0,1,-
BRDA:114,0,0,7
BRDA:114,0,1,0
BRDA:115,0,0,3
BRDA:115,0,1,4
BRDA:116,0,0,1
BRDA:116,0,1,2
BRDA:118,0,0,1
BRDA:118,0,1,0
BRDA:123,0,0,1
BRDA:123,0,1,1
BRDA:130,0,0,3
BRDA:130,0,1,0
BRDA:144,0,0,0
BRDA:144,0,1,2
BRDA:145,0,0,-
BRDA:145,e0,1,-
BRDA:150,0,0,3
BRDA:150,0,1,0
BRDA:151,0,0,2
BRDA:151,0,1,1
BRDA:157,0,0,-
BRDA:157,e0,1,-
BRDA:162,0,0,6
BRDA:162,0,1,1
BRDA:171,0,0,0
BRDA:171,0,1,10
BRDA:172,0,0,-
BRDA:172,e0,1,-
BRDA:175,0,0,10
BRDA:175,0,1,0
BRDA:175,0,2,0
BRDA:175,0,3,10
BRDA:176,0,0,-
BRDA:176,e0,1,-
BRDA:183,0,0,25
BRDA:183,0,1,0
BRDA:184,0,0,10
BRDA:184,0,1,15
BRDA:192,0,0,-
BRDA:192,e0,1,-
BRF:80
BRH:41
DA:14,17
DA:24,4
DA:26,4
DA:27,4
DA:28,11
DA:29,7
DA:30,7
DA:31,7
DA:33,4
DA:34,4
DA:35,4
DA:38,24
DA:39,24
DA:43,1
DA:44,1
DA:47,10
DA:48,10
DA:49,10
DA:50,1
DA:51,1
DA:54,9
DA:55,9
DA:56,9
DA:58,10
DA:59,10
DA:61,7
DA:62,7
DA:63,7
DA:64,3
DA:65,3
DA:68,4
DA:69,4
DA:70,4
DA:72,7
DA:73,7
DA:75,3
DA:76,3
DA:77,0
DA:79,3
DA:80,3
DA:81,2
DA:84,1
DA:86,3
DA:87,3
DA:88,3
DA:89,3
DA:91,4
DA:92,4
DA:93,0
DA:95,4
DA:96,4
DA:97,3
DA:100,1
DA:102,4
DA:103,4
DA:104,4
DA:105,4
DA:107,3
DA:108,3
DA:109,0
DA:111,3
DA:112,3
DA:114,7
DA:115,7
DA:116,3
DA:117,1
DA:118,1
DA:119,1
DA:121,0
DA:123,2
DA:124,1
DA:125,1
DA:127,1
DA:128,1
DA:130,3
DA:131,3
DA:132,3
DA:133,3
DA:135,4
DA:138,3
DA:141,3
DA:143,2
DA:144,2
DA:145,0
DA:148,2
DA:150,3
DA:151,3
DA:153,2
DA:155,1
DA:157,0
DA:160,1
DA:161,1
DA:162,7
DA:163,6
DA:164,6
DA:166,1
DA:167,1
DA:170,10
DA:171,10
DA:172,0
DA:175,10
DA:176,0
DA:179,10
DA:180,10
DA:183,25
DA:184,25
DA:185,10
DA:187,15
DA:188,15
DA:192,0
LF:110
LH:101
end_of_record
TN:
SF:/home/kln735/4test_lab/src/queue.h
FN:18,18,_ZN5QUEUEINSt7__cxx1112basic_stringIcSt11char_traitsIcESaIcEEEE4NodeC2ES5_
FN:18,18,_ZN5QUEUEIiE4NodeC2Ei
FN:25,25,_ZN5QUEUEINSt7__cxx1112basic_stringIcSt11char_traitsIcESaIcEEEEC2Ev
FN:25,25,_ZN5QUEUEIiEC2Ev
FN:27,34,_ZN5QUEUEINSt7__cxx1112basic_stringIcSt11char_traitsIcESaIcEEEED2Ev
FN:27,34,_ZN5QUEUEIiED2Ev
FN:36,38,_ZNK5QUEUEINSt7__cxx1112basic_stringIcSt11char_traitsIcESaIcEEEE8is_emptyEv
FN:36,38,_ZNK5QUEUEIiE8is_emptyEv
FN:40,49,_ZN5QUEUEINSt7__cxx1112basic_stringIcSt11char_traitsIcESaIcEEEE4pushERKS5_
FN:40,49,_ZN5QUEUEIiE4pushERKi
FN:51,63,_ZN5QUEUEINSt7__cxx1112basic_stringIcSt11char_traitsIcESaIcEEEE3popEv
FN:51,63,_ZN5QUEUEIiE3popEv
FN:65,70,_ZNK5QUEUEIiE5frontEv
FN:72,80,_ZNK5QUEUEINSt7__cxx1112basic_stringIcSt11char_traitsIcESaIcEEEE4sizeEv
FN:72,80,_ZNK5QUEUEIiE4sizeEv
FN:82,89,_ZNK5QUEUEINSt7__cxx1112basic_stringIcSt11char_traitsIcESaIcEEEE5printEv
FN:82,89,_ZNK5QUEUEIiE5printEv
FNDA:10,_ZN5QUEUEINSt7__cxx1112basic_stringIcSt11char_traitsIcESaIcEEEE4NodeC2ES5_
FNDA:10,_ZN5QUEUEIiE4NodeC2Ei
FNDA:2,_ZN5QUEUEINSt7__cxx1112basic_stringIcSt11char_traitsIcESaIcEEEEC2Ev
FNDA:2,_ZN5QUEUEIiEC2Ev
FNDA:2,_ZN5QUEUEINSt7__cxx1112basic_stringIcSt11char_traitsIcESaIcEEEED2Ev
FNDA:2,_ZN5QUEUEIiED2Ev
FNDA:23,_ZNK5QUEUEINSt7__cxx1112basic_stringIcSt11char_traitsIcESaIcEEEE8is_emptyEv
FNDA:24,_ZNK5QUEUEIiE8is_emptyEv
FNDA:10,_ZN5QUEUEINSt7__cxx1112basic_stringIcSt11char_traitsIcESaIcEEEE4pushERKS5_
FNDA:10,_ZN5QUEUEIiE4pushERKi
FNDA:10,_ZN5QUEUEINSt7__cxx1112basic_stringIcSt11char_traitsIcESaIcEEEE3popEv
FNDA:10,_ZN5QUEUEIiE3popEv
FNDA:1,_ZNK5QUEUEIiE5frontEv
FNDA:2,_ZNK5QUEUEINSt7__cxx1112basic_stringIcSt11char_traitsIcESaIcEEEE4sizeEv
FNDA:2,_ZNK5QUEUEIiE4sizeEv
FNDA:1,_ZNK5QUEUEINSt7__cxx1112basic_stringIcSt11char_traitsIcESaIcEEEE5printEv
FNDA:11,_ZNK5QUEUEIiE5printEv
FNF:17
FNH:17
BRDA:28,0,0,0
BRDA:28,0,1,4
BRDA:31,0,0,-
BRDA:31,0,1,-
BRDA:41,0,0,10
BRDA:41,e0,1,0
BRDA:41,0,2,10
BRDA:41,e0,3,0
BRDA:41,0,4,0
BRDA:41,0,5,0
BRDA:43,0,0,2
BRDA:43,0,1,18
BRDA:52,0,0,0
BRDA:52,0,1,20
BRDA:53,0,0,-
BRDA:53,e0,1,-
BRDA:58,0,0,20
BRDA:58,0,1,0
BRDA:60,0,0,2
BRDA:60,0,1,18
BRDA:66,0,0,0
BRDA:66,0,1,1
BRDA:67,0,0,-
BRDA:67,e0,1,-
BRDA:75,0,0,20
BRDA:75,0,1,4
BRDA:84,0,0,55
BRDA:84,0,1,12
BRF:28
BRH:14
DA:18,20
DA:25,4
DA:27,4
DA:28,8
DA:29,0
DA:30,0
DA:31,0
DA:33,4
DA:34,4
DA:36,47
DA:37,47
DA:40,20
DA:41,20
DA:43,20
DA:44,2
DA:46,18
DA:47,18
DA:49,20
DA:51,20
DA:52,20
DA:53,0
DA:56,20
DA:57,20
DA:58,20
DA:60,20
DA:61,2
DA:63,20
DA:65,1
DA:66,1
DA:67,0
DA:69,1
DA:72,4
DA:73,4
DA:74,4
DA:75,24
DA:76,20
DA:77,20
DA:79,4
DA:82,12
DA:83,12
DA:84,67
DA:85,55
DA:86,55
DA:88,12
DA:89,12
LF:45
LH:40
end_of_record
TN:
SF:/home/kln735/4test_lab/src/stack.h
FN:22,22,_ZN5StackINSt7__cxx1112basic_stringIcSt11char_traitsIcESaIcEEEE4NodeC2ES5_
FN:22,22,_ZN5StackIiE4NodeC2Ei
FN:29,29,_ZN5StackINSt7__cxx1112basic_stringIcSt11char_traitsIcESaIcEEEEC2Ev
FN:29,29,_ZN5StackIiEC2Ev
FN:31,37,_ZN5StackINSt7__cxx1112basic_stringIcSt11char_traitsIcESaIcEEEED2Ev
FN:31,37,_ZN5StackIiED2Ev
FN:39,41,_ZNK5StackINSt7__cxx1112basic_stringIcSt11char_traitsIcESaIcEEEE8is_emptyEv
FN:39,41,_ZNK5StackIiE8is_emptyEv
FN:43,48,_ZN5StackINSt7__cxx1112basic_stringIcSt11char_traitsIcESaIcEEEE4pushERKS5_
FN:43,48,_ZN5StackIiE4pushERKi
FN:50,60,_ZN5StackINSt7__cxx1112basic_stringIcSt11char_traitsIcESaIcEEEE3popEv
FN:50,60,_ZN5StackIiE3popEv
FN:62,67,_ZNK5StackINSt7__cxx1112basic_stringIcSt11char_traitsIcESaIcEEEE3topEv
FN:62,67,_ZNK5StackIiE3topEv
FN:69,71,_ZNK5StackINSt7__cxx1112basic_stringIcSt11char_traitsIcESaIcEEEE4sizeEv
FN:69,71,_ZNK5StackIiE4sizeEv
FN:73,80,_ZNK5StackIiE5printEv
FNDA:8,_ZN5StackINSt7__cxx1112basic_stringIcSt11char_traitsIcESaIcEEEE4NodeC2ES5_
FNDA:11,_ZN5StackIiE4NodeC2Ei
FNDA:2,_ZN5StackINSt7__cxx1112basic_stringIcSt11char_traitsIcESaIcEEEEC2Ev
FNDA:2,_ZN5StackIiEC2Ev
FNDA:2,_ZN5StackINSt7__cxx1112basic_stringIcSt11char_traitsIcESaIcEEEED2Ev
FNDA:2,_ZN5StackIiED2Ev
FNDA:3,_ZNK5StackINSt7__cxx1112basic_stringIcSt11char_traitsIcESaIcEEEE8is_emptyEv
FNDA:6,_ZNK5StackIiE8is_emptyEv
FNDA:8,_ZN5StackINSt7__cxx1112basic_stringIcSt11char_traitsIcESaIcEEEE4pushERKS5_
FNDA:11,_ZN5StackIiE4pushERKi
FNDA:1,_ZN5StackINSt7__cxx1112basic_stringIcSt11char_traitsIcESaIcEEEE3popEv
FNDA:4,_ZN5StackIiE3popEv
FNDA:2,_ZNK5StackINSt7__cxx1112basic_stringIcSt11char_traitsIcESaIcEEEE3topEv
FNDA:2,_ZNK5StackIiE3topEv
FNDA:2,_ZNK5StackINSt7__cxx1112basic_stringIcSt11char_traitsIcESaIcEEEE4sizeEv
FNDA:2,_ZNK5StackIiE4sizeEv
FNDA:1,_ZNK5StackIiE5printEv
FNF:17
FNH:17
BRDA:32,0,0,14
BRDA:32,0,1,4
BRDA:35,0,0,0
BRDA:35,0,1,14
BRDA:44,0,0,8
BRDA:44,e0,1,0
BRDA:44,0,2,8
BRDA:44,e0,3,0
BRDA:44,0,4,0
BRDA:44,0,5,0
BRDA:51,0,0,0
BRDA:51,0,1,5
BRDA:52,0,0,-
BRDA:52,e0,1,-
BRDA:56,0,0,5
BRDA:56,0,1,0
BRDA:63,0,0,0
BRDA:63,0,1,4
BRDA:64,0,0,-
BRDA:64,e0,1,-
BRDA:75,0,0,11
BRDA:75,0,1,1
BRF:22
BRH:10
DA:22,19
DA:29,4
DA:31,4
DA:32,22
DA:33,14
DA:34,14
DA:35,14
DA:37,4
DA:39,9
DA:40,9
DA:43,19
DA:44,19
DA:45,19
DA:46,19
DA:47,19
DA:48,19
DA:50,5
DA:51,5
DA:52,0
DA:55,5
DA:56,5
DA:57,5
DA:58,5
DA:60,5
DA:62,4
DA:63,4
DA:64,0
DA:66,4
DA:69,4
DA:70,4
DA:73,1
DA:74,1
DA:75,12
DA:76,11
DA:77,11
DA:79,1
DA:80,1
LF:37
LH:35
end_of_record
TN:
SF:/home/kln735/4test_lab/test/test_array.cpp
FN:127,127,_ZN35test_vector_int_MGET_WITH_MSET_Test8TestBodyEv
FN:127,127,_ZN35test_vector_int_MGET_WITH_MSET_TestC2Ev
FN:127,127,_ZN35test_vector_int_MGET_WITH_MSET_TestD0Ev
FN:127,127,_ZN35test_vector_int_MGET_WITH_MSET_TestD2Ev
FN:157,196,_ZN35test_vector_int_OTHER_ACTIVITY_Test8TestBodyEv
FN:157,196,_ZN35test_vector_int_OTHER_ACTIVITY_TestC2Ev
FN:157,196,_ZN35test_vector_int_OTHER_ACTIVITY_TestD0Ev
FN:157,196,_ZN35test_vector_int_OTHER_ACTIVITY_TestD2Ev
FN:18,18,_ZN26test_vector_int_MPUSH_Test8TestBodyEv
FN:18,18,_ZN26test_vector_int_MPUSH_TestC2Ev
FN:18,18,_ZN26test_vector_int_MPUSH_TestD0Ev
FN:18,18,_ZN26test_vector_int_MPUSH_TestD2Ev
FN:199,202,main
FN:37,37,_ZN26test_vector_str_MPUSH_Test8TestBodyEv
FN:37,37,_ZN26test_vector_str_MPUSH_TestC2Ev
FN:37,37,_ZN26test_vector_str_MPUSH_TestD0Ev
FN:37,37,_ZN26test_vector_str_MPUSH_TestD2Ev
FN:56,56,_ZN30test_vector_int_MPUSH_IND_Test8TestBodyEv
FN:56,56,_ZN30test_vector_int_MPUSH_IND_TestC2Ev
FN:56,56,_ZN30test_vector_int_MPUSH_IND_TestD0Ev
FN:56,56,_ZN30test_vector_int_MPUSH_IND_TestD2Ev
FN:79,79,_ZN30test_vector_str_MPUSH_IND_Test8TestBodyEv
FN:79,79,_ZN30test_vector_str_MPUSH_IND_TestC2Ev
FN:79,79,_ZN30test_vector_str_MPUSH_IND_TestD0Ev
FN:79,79,_ZN30test_vector_str_MPUSH_IND_TestD2Ev
FN:96,96,_ZN25test_vector_int_MDEL_Test8TestBodyEv
FN:96,96,_ZN25test_vector_int_MDEL_TestC2Ev
FN:96,96,_ZN25test_vector_int_MDEL_TestD0Ev
FN:96,96,_ZN25test_vector_int_MDEL_TestD2Ev
FNDA:1,_ZN35test_vector_int_MGET_WITH_MSET_Test8TestBodyEv
FNDA:1,_ZN35test_vector_int_MGET_WITH_MSET_TestC2Ev
FNDA:1,_ZN35test_vector_int_MGET_WITH_MSET_TestD0Ev
FNDA:1,_ZN35test_vector_int_MGET_WITH_MSET_TestD2Ev
FNDA:1,_ZN35test_vector_int_OTHER_ACTIVITY_Test8TestBodyEv
FNDA:1,_ZN35test_vector_int_OTHER_ACTIVITY_TestC2Ev
FNDA:1,_ZN35test_vector_int_OTHER_ACTIVITY_TestD0Ev
FNDA:1,_ZN35test_vector_int_OTHER_ACTIVITY_TestD2Ev
FNDA:1,_ZN26test_vector_int_MPUSH_Test8TestBodyEv
FNDA:1,_ZN26test_vector_int_MPUSH_TestC2Ev
FNDA:1,_ZN26test_vector_int_MPUSH_TestD0Ev
FNDA:1,_ZN26test_vector_int_MPUSH_TestD2Ev
FNDA:1,main
FNDA:1,_ZN26test_vector_str_MPUSH_Test8TestBodyEv
FNDA:1,_ZN26test_vector_str_MPUSH_TestC2Ev
FNDA:1,_ZN26test_vector_str_MPUSH_TestD0Ev
FNDA:1,_ZN26test_vector_str_MPUSH_TestD2Ev
FNDA:1,_ZN30test_vector_int_MPUSH_IND_Test8TestBodyEv
FNDA:1,_ZN30test_vector_int_MPUSH_IND_TestC2Ev
FNDA:1,_ZN30test_vector_int_MPUSH_IND_TestD0Ev
FNDA:1,_ZN30test_vector_int_MPUSH_IND_TestD2Ev
FNDA:1,_ZN30test_vector_str_MPUSH_IND_Test8TestBodyEv
FNDA:1,_ZN30test_vector_str_MPUSH_IND_TestC2Ev
FNDA:1,_ZN30test_vector_str_MPUSH_IND_TestD0Ev
FNDA:1,_ZN30test_vector_str_MPUSH_IND_TestD2Ev
FNDA:1,_ZN25test_vector_int_MDEL_Test8TestBodyEv
FNDA:1,_ZN25test_vector_int_MDEL_TestC2Ev
FNDA:1,_ZN25test_vector_int_MDEL_TestD0Ev
FNDA:1,_ZN25test_vector_int_MDEL_TestD2Ev
FNF:29
FNH:29
BRDA:19,0,0,1
BRDA:19,e0,1,0
BRDA:20,0,0,1
BRDA:20,e0,1,0
BRDA:21,0,0,1
BRDA:21,e0,1,0
BRDA:22,0,0,1
BRDA:22,e0,1,0
BRDA:23,0,0,1
BRDA:23,e0,1,0
BRDA:25,0,0,1
BRDA:25,e0,1,0
BRDA:25,0,2,1
BRDA:25,e0,3,0
BRDA:26,0,0,1
BRDA:26,e0,1,0
BRDA:26,0,2,1
BRDA:26,e0,3,0
BRDA:27,0,0,1
BRDA:27,e0,1,0
BRDA:27,0,2,1
BRDA:27,e0,3,0
BRDA:28,0,0,1
BRDA:28,e0,1,0
BRDA:30,0,0,1
BRDA:30,e0,1,0
BRDA:30,0,2,0
BRDA:30,0,3,1
BRDA:30,0,4,0
BRDA:30,e0,5,0
BRDA:30,0,6,0
BRDA:30,e0,7,0
BRDA:30,0,8,0
BRDA:30,e0,9,0
BRDA:31,0,0,1
BRDA:31,e0,1,0
BRDA:31,0,2,0
BRDA:31,0,3,1
BRDA:31,0,4,0
BRDA:31,e0,5,0
BRDA:31,0,6,0
BRDA:31,e0,7,0
BRDA:31,0,8,0
BRDA:31,e0,9,0
BRDA:32,0,0,1
BRDA:32,e0,1,0
BRDA:32,0,2,1
BRDA:32,e0,3,0
BRDA:32,0,4,0
BRDA:32,0,5,1
BRDA:32,0,6,0
BRDA:32,e0,7,0
BRDA:32,0,8,0
BRDA:32,e0,9,0
BRDA:32,0,10,0
BRDA:32,e0,11,0
BRDA:33,0,0,1
BRDA:33,e0,1,0
BRDA:33,0,2,0
BRDA:33,0,3,1
BRDA:33,0,4,0
BRDA:33,e0,5,0
BRDA:33,0,6,0
BRDA:33,e0,7,0
BRDA:33,0,8,0
BRDA:33,e0,9,0
BRDA:34,0,0,1
BRDA:34,e0,1,0
BRDA:34,0,2,0
BRDA:34,0,3,1
BRDA:34,0,4,0
BRDA:34,e0,5,0
BRDA:34,0,6,0
BRDA:34,e0,7,0
BRDA:34,0,8,0
BRDA:34,e0,9,0
BRDA:38,0,0,1
BRDA:38,e0,1,0
BRDA:38,0,2,1
BRDA:38,e0,3,0
BRDA:39,0,0,1
BRDA:39,e0,1,0
BRDA:39,0,2,1
BRDA:39,e0,3,0
BRDA:40,0,0,1
BRDA:40,e0,1,0
BRDA:40,0,2,1
BRDA:40,e0,3,0
BRDA:41,0,0,1
BRDA:41,e0,1,0
BRDA:41,0,2,1
BRDA:41,e0,3,0
BRDA:42,0,0,1
BRDA:42,e0,1,0
BRDA:42,0,2,1
BRDA:42,e0,3,0
BRDA:43,0,0,1
BRDA:43,e0,1,0
BRDA:43,0,2,1
BRDA:43,e0,3,0
BRDA:46,0,0,1
BRDA:46,e0,1,0
BRDA:46,0,2,1
BRDA:46,e0,3,0
BRDA:46,0,4,1
BRDA:46,e0,5,0
BRDA:46,0,6,0
BRDA:46,0,7,1
BRDA:46,0,8,0
BRDA:46,e0,9,0
BRDA:46,0,10,0
BRDA:46,e0,11,0
BRDA:46,0,12,0
BRDA:46,e0,13,0
BRDA:47,0,0,1
BRDA:47,e0,1,0
BRDA:47,0,2,1
BRDA:47,e0,3,0
BRDA:47,0,4,1
BRDA:47,e0,5,0
BRDA:47,0,6,0
BRDA:47,0,7,1
BRDA:47,0,8,0
BRDA:47,e0,9,0
BRDA:47,0,10,0
BRDA:47,e0,11,0
BRDA:47,0,12,0
BRDA:47,e0,13,0
BRDA:48,0,0,1
BRDA:48,e0,1,0
BRDA:48,0,2,1
BRDA:48,e0,3,0
BRDA:48,0,4,1
BRDA:48,e0,5,0
BRDA:48,0,6,1
BRDA:48,e0,7,0
BRDA:48,0,8,0
BRDA:48,0,9,1
BRDA:48,0,10,0
BRDA:48,e0,11,0
BRDA:48,0,12,0
BRDA:48,e0,13,0
BRDA:48,0,14,0
BRDA:48,e0,15,0
BRDA:49,0,0,1
BRDA:49,e0,1,0
BRDA:49,0,2,1
BRDA:49,e0,3,0
BRDA:49,0,4,1
BRDA:49,e0,5,0
BRDA:49,0,6,1
BRDA:49,e0,7,0
BRDA:49,0,8,0
BRDA:49,0,9,1
BRDA:49,0,10,0
BRDA:49,e0,11,0
BRDA:49,0,12,0
BRDA:49,e0,13,0
BRDA:49,0,14,0
BRDA:49,e0,15,0
BRDA:50,0,0,1
BRDA:50,e0,1,0
BRDA:50,0,2,1
BRDA:50,e0,3,0
BRDA:50,0,4,1
BRDA:50,e0,5,0
BRDA:50,0,6,1
BRDA:50,e0,7,0
BRDA:50,0,8,0
BRDA:50,0,9,1
BRDA:50,0,10,0
BRDA:50,e0,11,0
BRDA:50,0,12,0
BRDA:50,e0,13,0
BRDA:50,0,14,0
BRDA:50,e0,15,0
BRDA:51,0,0,1
BRDA:51,e0,1,0
BRDA:51,0,2,1
BRDA:51,e0,3,0
BRDA:51,0,4,1
BRDA:51,e0,5,0
BRDA:51,0,6,1
BRDA:51,e0,7,0
BRDA:51,0,8,0
BRDA:51,0,9,1
BRDA:51,0,10,0
BRDA:51,e0,11,0
BRDA:51,0,12,0
BRDA:51,e0,13,0
BRDA:51,0,14,0
BRDA:51,e0,15,0
BRDA:58,0,0,1
BRDA:58,e0,1,0
BRDA:59,0,0,1
BRDA:59,e0,1,0
BRDA:60,0,0,1
BRDA:60,e0,1,0
BRDA:61,0,0,1
BRDA:61,e0,1,0
BRDA:62,0,0,1
BRDA:62,e0,1,0
BRDA:64,0,0,1
BRDA:64,e0,1,0
BRDA:66,0,0,1
BRDA:66,e0,1,0
BRDA:67,0,0,1
BRDA:67,e0,1,0
BRDA:68,0,0,1
BRDA:68,e0,1,0
BRDA:70,0,0,1
BRDA:70,e0,1,0
BRDA:70,0,2,1
BRDA:70,e0,3,0
BRDA:70,0,4,0
BRDA:70,0,5,1
BRDA:70,0,6,0
BRDA:70,e0,7,0
BRDA:70,0,8,0
BRDA:70,e0,9,0
BRDA:70,0,10,0
BRDA:70,e0,11,0
BRDA:71,0,0,1
BRDA:71,e0,1,0
BRDA:71,0,2,0
BRDA:71,0,3,1
BRDA:71,0,4,0
BRDA:71,e0,5,0
BRDA:71,0,6,0
BRDA:71,e0,7,0
BRDA:71,0,8,0
BRDA:71,e0,9,0
BRDA:72,0,0,1
BRDA:72,e0,1,0
BRDA:72,0,2,1
BRDA:72,e0,3,0
BRDA:72,0,4,1
BRDA:72,e0,5,0
BRDA:72,0,6,0
BRDA:72,0,7,1
BRDA:72,0,8,0
BRDA:72,e0,9,0
BRDA:72,0,10,0
BRDA:72,e0,11,0
BRDA:72,0,12,0
BRDA:72,e0,13,0
BRDA:73,0,0,1
BRDA:73,e0,1,0
BRDA:73,0,2,0
BRDA:73,0,3,1
BRDA:73,0,4,0
BRDA:73,e0,5,0
BRDA:73,0,6,0
BRDA:73,e0,7,0
BRDA:73,0,8,0
BRDA:73,e0,9,0
BRDA:80,0,0,1
BRDA:80,e0,1,0
BRDA:80,0,2,1
BRDA:80,e0,3,0
BRDA:81,0,0,1
BRDA:81,e0,1,0
BRDA:81,0,2,1
BRDA:81,e0,3,0
BRDA:82,0,0,1
BRDA:82,e0,1,0
BRDA:82,0,2,1
BRDA:82,e0,3,0
BRDA:83,0,0,1
BRDA:83,e0,1,0
BRDA:83,0,2,1
BRDA:83,e0,3,0
BRDA:84,0,0,1
BRDA:84,e0,1,0
BRDA:84,0,2,1
BRDA:84,e0,3,0
BRDA:85,0,0,1
BRDA:85,e0,1,0
BRDA:85,0,2,1
BRDA:85,e0,3,0
BRDA:87,0,0,1
BRDA:87,e0,1,0
BRDA:87,0,2,1
BRDA:87,e0,3,0
BRDA:87,0,4,1
BRDA:87,e0,5,0
BRDA:88,0,0,1
BRDA:88,e0,1,0
BRDA:88,0,2,1
BRDA:88,e0,3,0
BRDA:88,0,4,1
BRDA:88,e0,5,0
BRDA:88,0,6,1
BRDA:88,e0,7,0
BRDA:90,0,0,1
BRDA:90,e0,1,0
BRDA:90,0,2,1
BRDA:90,e0,3,0
BRDA:90,0,4,1
BRDA:90,e0,5,0
BRDA:90,0,6,0
BRDA:90,0,7,1
BRDA:90,0,8,0
BRDA:90,e0,9,0
BRDA:90,0,10,0
BRDA:90,e0,11,0
BRDA:90,0,12,0
BRDA:90,e0,13,0
BRDA:91,0,0,1
BRDA:91,e0,1,0
BRDA:91,0,2,1
BRDA:91,e0,3,0
BRDA:91,0,4,1
BRDA:91,e0,5,0
BRDA:91,0,6,1
BRDA:91,e0,7,0
BRDA:91,0,8,0
BRDA:91,0,9,1
BRDA:91,0,10,0
BRDA:91,e0,11,0
BRDA:91,0,12,0
BRDA:91,e0,13,0
BRDA:91,0,14,0
BRDA:91,e0,15,0
BRDA:92,0,0,1
BRDA:92,e0,1,0
BRDA:92,0,2,1
BRDA:92,e0,3,0
BRDA:92,0,4,1
BRDA:92,e0,5,0
BRDA:92,0,6,1
BRDA:92,e0,7,0
BRDA:92,0,8,0
BRDA:92,0,9,1
BRDA:92,0,10,0
BRDA:92,e0,11,0
BRDA:92,0,12,0
BRDA:92,e0,13,0
BRDA:92,0,14,0
BRDA:92,e0,15,0
BRDA:93,0,0,1
BRDA:93,e0,1,0
BRDA:93,0,2,1
BRDA:93,e0,3,0
BRDA:93,0,4,1
BRDA:93,e0,5,0
BRDA:93,0,6,1
BRDA:93,e0,7,0
BRDA:93,0,8,0
BRDA:93,0,9,1
BRDA:93,0,10,0
BRDA:93,e0,11,0
BRDA:93,0,12,0
BRDA:93,e0,13,0
BRDA:93,0,14,0
BRDA:93,e0,15,0
BRDA:98,0,0,1
BRDA:98,e0,1,0
BRDA:99,0,0,1
BRDA:99,e0,1,0
BRDA:100,0,0,1
BRDA:100,e0,1,0
BRDA:102,0,0,1
BRDA:102,e0,1,0
BRDA:104,0,0,1
BRDA:104,e0,1,0
BRDA:104,0,2,0
BRDA:104,0,3,1
BRDA:104,0,4,0
BRDA:104,e0,5,0
BRDA:104,0,6,0
BRDA:104,e0,7,0
BRDA:104,0,8,0
BRDA:104,e0,9,0
BRDA:105,0,0,1
BRDA:105,e0,1,0
BRDA:105,0,2,1
BRDA:105,e0,3,0
BRDA:105,0,4,0
BRDA:105,0,5,1
BRDA:105,0,6,0
BRDA:105,e0,7,0
BRDA:105,0,8,0
BRDA:105,e0,9,0
BRDA:105,0,10,0
BRDA:105,e0,11,0
BRDA:106,0,0,1
BRDA:106,e0,1,0
BRDA:106,0,2,1
BRDA:106,e0,3,0
BRDA:106,0,4,0
BRDA:106,0,5,1
BRDA:106,0,6,0
BRDA:106,e0,7,0
BRDA:106,0,8,0
BRDA:106,e0,9,0
BRDA:106,0,10,0
BRDA:106,e0,11,0
BRDA:107,0,0,1
BRDA:107,e0,1,0
BRDA:107,0,2,1
BRDA:107,e0,3,0
BRDA:107,0,4,0
BRDA:107,0,5,1
BRDA:107,0,6,0
BRDA:107,e0,7,0
BRDA:107,0,8,0
BRDA:107,e0,9,0
BRDA:107,0,10,0
BRDA:107,e0,11,0
BRDA:109,0,0,1
BRDA:109,e0,1,0
BRDA:111,0,0,1
BRDA:111,e0,1,0
BRDA:111,0,2,0
BRDA:111,0,3,1
BRDA:111,0,4,0
BRDA:111,e0,5,0
BRDA:111,0,6,0
BRDA:111,e0,7,0
BRDA:111,0,8,0
BRDA:111,e0,9,0
BRDA:112,0,0,1
BRDA:112,e0,1,0
BRDA:112,0,2,1
BRDA:112,e0,3,0
BRDA:112,0,4,0
BRDA:112,0,5,1
BRDA:112,0,6,0
BRDA:112,e0,7,0
BRDA:112,0,8,0
BRDA:112,e0,9,0
BRDA:112,0,10,0
BRDA:112,e0,11,0
BRDA:113,0,0,1
BRDA:113,e0,1,0
BRDA:113,0,2,1
BRDA:113,e0,3,0
BRDA:113,0,4,0
BRDA:113,0,5,1
BRDA:113,0,6,0
BRDA:113,e0,7,0
BRDA:113,0,8,0
BRDA:113,e0,9,0
BRDA:113,0,10,0
BRDA:113,e0,11,0
BRDA:115,0,0,1
BRDA:115,e0,1,0
BRDA:117,0,0,1
BRDA:117,e0,1,0
BRDA:117,0,2,0
BRDA:117,0,3,1
BRDA:117,0,4,0
BRDA:117,e0,5,0
BRDA:117,0,6,0
BRDA:117,e0,7,0
BRDA:117,0,8,0
BRDA:117,e0,9,0
BRDA:118,0,0,1
BRDA:118,e0,1,0
BRDA:118,0,2,1
BRDA:118,e0,3,0
BRDA:118,0,4,0
BRDA:118,0,5,1
BRDA:118,0,6,0
BRDA:118,e0,7,0
BRDA:118,0,8,0
BRDA:118,e0,9,0
BRDA:118,0,10,0
BRDA:118,e0,11,0
BRDA:120,0,0,1
BRDA:120,0,1,0
BRDA:120,0,2,1
BRDA:120,e0,3,0
BRDA:120,0,4,1
BRDA:120,0,5,0
BRDA:120,0,6,0
BRDA:120,e0,7,1
BRDA:120,0,8,0
BRDA:120,0,9,1
BRDA:120,0,10,0
BRDA:120,e0,11,0
BRDA:120,0,12,0
BRDA:120,e0,13,0
BRDA:120,0,14,0
BRDA:120,e0,15,0
BRDA:120,0,16,0
BRDA:120,e0,17,0
BRDA:120,0,18,1
BRDA:120,0,19,0
BRDA:120,0,20,0
BRDA:120,0,21,0
BRDA:120,e0,22,0
BRDA:120,0,23,0
BRDA:120,e0,24,0
BRDA:120,0,25,0
BRDA:120,e0,26,0
BRDA:120,0,27,0
BRDA:120,e0,28,0
BRDA:120,0,29,0
BRDA:120,e0,30,0
BRDA:120,0,31,0
BRDA:120,e0,32,0
BRDA:120,0,33,0
BRDA:120,e0,34,0
BRDA:120,0,35,0
BRDA:120,e0,36,0
BRDA:122,0,0,1
BRDA:122,0,1,0
BRDA:122,0,2,1
BRDA:122,e0,3,0
BRDA:122,0,4,1
BRDA:122,0,5,0
BRDA:122,0,6,0
BRDA:122,e0,7,1
BRDA:122,0,8,0
BRDA:122,0,9,1
BRDA:122,0,10,0
BRDA:122,e0,11,0
BRDA:122,0,12,0
BRDA:122,e0,13,0
BRDA:122,0,14,0
BRDA:122,e0,15,0
BRDA:122,0,16,0
BRDA:122,e0,17,0
BRDA:122,0,18,1
BRDA:122,0,19,0
BRDA:122,0,20,0
BRDA:122,0,21,0
BRDA:122,e0,22,0
BRDA:122,0,23,0
BRDA:122,e0,24,0
BRDA:122,0,25,0
BRDA:122,e0,26,0
BRDA:122,0,27,0
BRDA:122,e0,28,0
BRDA:122,0,29,0
BRDA:122,e0,30,0
BRDA:122,0,31,0
BRDA:122,e0,32,0
BRDA:122,0,33,0
BRDA:122,e0,34,0
BRDA:122,0,35,0
BRDA:122,e0,36,0
BRDA:128,0,0,1
BRDA:128,e0,1,0
BRDA:129,0,0,1
BRDA:129,e0,1,0
BRDA:130,0,0,1
BRDA:130,e0,1,0
BRDA:131,0,0,1
BRDA:131,e0,1,0
BRDA:132,0,0,1
BRDA:132,e0,1,0
BRDA:133,0,0,1
BRDA:133,e0,1,0
BRDA:134,0,0,1
BRDA:134,e0,1,0
BRDA:135,0,0,1
BRDA:135,e0,1,0
BRDA:137,0,0,1
BRDA:137,e0,1,0
BRDA:137,0,2,1
BRDA:137,e0,3,0
BRDA:138,0,0,1
BRDA:138,e0,1,0
BRDA:138,0,2,1
BRDA:138,e0,3,0
BRDA:139,0,0,1
BRDA:139,e0,1,0
BRDA:139,0,2,1
BRDA:139,e0,3,0
BRDA:141,0,0,1
BRDA:141,e0,1,0
BRDA:141,0,2,1
BRDA:141,e0,3,0
BRDA:143,0,0,1
BRDA:143,e0,1,0
BRDA:144,0,0,1
BRDA:144,e0,1,0
BRDA:145,0,0,1
BRDA:145,e0,1,0
BRDA:146,0,0,1
BRDA:146,e0,1,0
BRDA:146,0,2,1
BRDA:146,e0,3,0
BRDA:146,0,4,1
BRDA:146,e0,5,0
BRDA:148,0,0,1
BRDA:148,e0,1,0
BRDA:148,0,2,0
BRDA:148,0,3,1
BRDA:148,0,4,0
BRDA:148,e0,5,0
BRDA:148,0,6,0
BRDA:148,e0,7,0
BRDA:148,0,8,0
BRDA:148,e0,9,0
BRDA:149,0,0,1
BRDA:149,e0,1,0
BRDA:149,0,2,1
BRDA:149,e0,3,0
BRDA:149,0,4,1
BRDA:149,e0,5,0
BRDA:149,0,6,0
BRDA:149,0,7,1
BRDA:149,0,8,0
BRDA:149,e0,9,0
BRDA:149,0,10,0
BRDA:149,e0,11,0
BRDA:149,0,12,0
BRDA:149,e0,13,0
BRDA:150,0,0,1
BRDA:150,e0,1,0
BRDA:150,0,2,0
BRDA:150,0,3,1
BRDA:150,0,4,0
BRDA:150,e0,5,0
BRDA:150,0,6,0
BRDA:150,e0,7,0
BRDA:150,0,8,0
BRDA:150,e0,9,0
BRDA:151,0,0,1
BRDA:151,e0,1,0
BRDA:151,0,2,0
BRDA:151,0,3,1
BRDA:151,0,4,0
BRDA:151,e0,5,0
BRDA:151,0,6,0
BRDA:151,e0,7,0
BRDA:151,0,8,0
BRDA:151,e0,9,0
BRDA:152,0,0,1
BRDA:152,e0,1,0
BRDA:152,0,2,1
BRDA:152,e0,3,0
BRDA:152,0,4,0
BRDA:152,0,5,1
BRDA:152,0,6,0
BRDA:152,e0,7,0
BRDA:152,0,8,0
BRDA:152,e0,9,0
BRDA:152,0,10,0
BRDA:152,e0,11,0
BRDA:159,0,0,1
BRDA:159,e0,1,0
BRDA:159,0,2,0
BRDA:159,0,3,1
BRDA:159,0,4,0
BRDA:159,e0,5,0
BRDA:159,0,6,0
BRDA:159,e0,7,0
BRDA:159,0,8,0
BRDA:159,e0,9,0
BRDA:160,0,0,1
BRDA:160,e0,1,0
BRDA:160,0,2,0
BRDA:160,0,3,1
BRDA:160,0,4,0
BRDA:160,e0,5,0
BRDA:160,0,6,0
BRDA:160,e0,7,0
BRDA:160,0,8,0
BRDA:160,e0,9,0
BRDA:166,0,0,1
BRDA:166,e0,1,0
BRDA:166,0,2,0
BRDA:166,0,3,1
BRDA:166,0,4,0
BRDA:166,e0,5,0
BRDA:166,0,6,0
BRDA:166,e0,7,0
BRDA:166,0,8,0
BRDA:166,e0,9,0
BRDA:167,0,0,1
BRDA:167,e0,1,0
BRDA:167,0,2,0
BRDA:167,0,3,1
BRDA:167,0,4,0
BRDA:167,e0,5,0
BRDA:167,0,6,0
BRDA:167,e0,7,0
BRDA:167,0,8,0
BRDA:167,e0,9,0
BRDA:169,0,0,1
BRDA:169,e0,1,0
BRDA:169,0,2,0
BRDA:169,0,3,1
BRDA:169,0,4,0
BRDA:169,e0,5,0
BRDA:169,0,6,0
BRDA:169,e0,7,0
BRDA:169,0,8,0
BRDA:169,e0,9,0
BRDA:170,0,0,1
BRDA:170,e0,1,0
BRDA:170,0,2,0
BRDA:170,0,3,1
BRDA:170,0,4,0
BRDA:170,e0,5,0
BRDA:170,0,6,0
BRDA:170,e0,7,0
BRDA:170,0,8,0
BRDA:170,e0,9,0
BRDA:174,0,0,1
BRDA:174,e0,1,0
BRDA:174,0,2,0
BRDA:174,0,3,1
BRDA:174,0,4,0
BRDA:174,e0,5,0
BRDA:174,0,6,0
BRDA:174,e0,7,0
BRDA:174,0,8,0
BRDA:174,e0,9,0
BRDA:175,0,0,1
BRDA:175,e0,1,0
BRDA:175,0,2,0
BRDA:175,0,3,1
BRDA:175,0,4,0
BRDA:175,e0,5,0
BRDA:175,0,6,0
BRDA:175,e0,7,0
BRDA:175,0,8,0
BRDA:175,e0,9,0
BRDA:178,0,0,3
BRDA:178,0,1,1
BRDA:179,0,0,3
BRDA:179,e0,1,0
BRDA:179,0,2,3
BRDA:179,e0,3,0
BRDA:179,0,4,0
BRDA:179,0,5,3
BRDA:179,0,6,0
BRDA:179,e0,7,0
BRDA:179,0,8,0
BRDA:179,e0,9,0
BRDA:179,0,10,0
BRDA:179,e0,11,0
BRDA:183,0,0,1
BRDA:183,e0,1,0
BRDA:183,0,2,0
BRDA:183,0,3,1
BRDA:183,0,4,0
BRDA:183,e0,5,0
BRDA:183,0,6,0
BRDA:183,e0,7,0
BRDA:183,0,8,0
BRDA:183,e0,9,0
BRDA:184,0,0,1
BRDA:184,e0,1,0
BRDA:184,0,2,0
BRDA:184,0,3,1
BRDA:184,0,4,0
BRDA:184,e0,5,0
BRDA:184,0,6,0
BRDA:184,e0,7,0
BRDA:184,0,8,0
BRDA:184,e0,9,0
BRDA:187,0,0,1
BRDA:187,e0,1,0
BRDA:187,0,2,0
BRDA:187,0,3,1
BRDA:187,0,4,0
BRDA:187,e0,5,0
BRDA:187,0,6,0
BRDA:187,e0,7,0
BRDA:187,0,8,0
BRDA:187,e0,9,0
BRDA:188,0,0,1
BRDA:188,e0,1,0
BRDA:188,0,2,0
BRDA:188,0,3,1
BRDA:188,0,4,0
BRDA:188,e0,5,0
BRDA:188,0,6,0
BRDA:188,e0,7,0
BRDA:188,0,8,0
BRDA:188,e0,9,0
BRDA:190,0,0,1
BRDA:190,e0,1,0
BRDA:190,0,2,0
BRDA:190,0,3,1
BRDA:190,0,4,0
BRDA:190,e0,5,0
BRDA:190,0,6,0
BRDA:190,e0,7,0
BRDA:190,0,8,0
BRDA:190,e0,9,0
BRDA:191,0,0,1
BRDA:191,e0,1,0
BRDA:191,0,2,0
BRDA:191,0,3,1
BRDA:191,0,4,0
BRDA:191,e0,5,0
BRDA:191,0,6,0
BRDA:191,e0,7,0
BRDA:191,0,8,0
BRDA:191,e0,9,0
BRDA:193,0,0,1
BRDA:193,e0,1,0
BRDA:193,0,2,0
BRDA:193,0,3,1
BRDA:193,0,4,0
BRDA:193,e0,5,0
BRDA:193,0,6,0
BRDA:193,e0,7,0
BRDA:193,0,8,0
BRDA:193,e0,9,0
BRDA:195,0,0,1
BRDA:195,e0,1,0
BRDA:195,0,2,0
BRDA:195,0,3,1
BRDA:195,0,4,0
BRDA:195,e0,5,0
BRDA:195,0,6,0
BRDA:195,e0,7,0
BRDA:195,0,8,0
BRDA:195,e0,9,0
BRF:818
BRH:235
DA:18,4
DA:19,1
DA:20,1
DA:21,1
DA:22,1
DA:23,1
DA:25,1
DA:26,1
DA:27,1
DA:28,1
DA:30,1
DA:31,1
DA:32,1
DA:33,1
DA:34,1
DA:35,1
DA:37,4
DA:38,2
DA:39,2
DA:40,2
DA:41,2
DA:42,2
DA:43,2
DA:46,1
DA:47,1
DA:48,1
DA:49,1
DA:50,1
DA:51,1
DA:52,1
DA:56,4
DA:58,1
DA:59,1
DA:60,1
DA:61,1
DA:62,1
DA:64,1
DA:66,1
DA:67,1
DA:68,1
DA:70,1
DA:71,1
DA:72,1
DA:73,1
DA:74,1
DA:79,4
DA:80,2
DA:81,2
DA:82,2
DA:83,2
DA:84,2
DA:85,2
DA:87,1
DA:88,1
DA:90,1
DA:91,1
DA:92,1
DA:93,1
DA:94,1
DA:96,4
DA:98,1
DA:99,1
DA:100,1
DA:102,1
DA:104,1
DA:105,1
DA:106,1
DA:107,1
DA:109,1
DA:111,1
DA:112,1
DA:113,1
DA:115,1
DA:117,1
DA:118,1
DA:120,1
DA:122,1
DA:123,1
DA:127,4
DA:128,1
DA:129,1
DA:130,1
DA:131,1
DA:132,1
DA:133,1
DA:134,1
DA:135,1
DA:137,1
DA:138,1
DA:139,1
DA:141,1
DA:143,1
DA:144,1
DA:145,1
DA:146,1
DA:148,1
DA:149,1
DA:150,1
DA:151,1
DA:152,1
DA:153,1
DA:157,4
DA:159,1
DA:160,1
DA:162,1
DA:163,1
DA:164,1
DA:166,1
DA:167,1
DA:169,1
DA:170,1
DA:172,1
DA:174,1
DA:175,1
DA:177,1
DA:178,4
DA:179,3
DA:182,1
DA:183,1
DA:184,1
DA:186,1
DA:187,1
DA:188,1
DA:190,1
DA:191,1
DA:193,1
DA:195,1
DA:196,1
DA:199,1
DA:200,1
DA:201,1
LF:131
LH:131
end_of_record
TN:
SF:/home/kln735/4test_lab/test/test_fbt.cpp
FN:12,12,_ZN21FBT_test_AddNode_Test8TestBodyEv
FN:12,12,_ZN21FBT_test_AddNode_TestC2Ev
FN:12,12,_ZN21FBT_test_AddNode_TestD0Ev
FN:12,12,_ZN21FBT_test_AddNode_TestD2Ev
FN:21,21,_ZN20FBT_test_isFull_Test8TestBodyEv
FN:21,21,_ZN20FBT_test_isFull_TestC2Ev
FN:21,21,_ZN20FBT_test_isFull_TestD0Ev
FN:21,21,_ZN20FBT_test_isFull_TestD2Ev
FN:30,30,_ZN21FBT_test_notFull_Test8TestBodyEv
FN:30,30,_ZN21FBT_test_notFull_TestC2Ev
FN:30,30,_ZN21FBT_test_notFull_TestD0Ev
FN:30,30,_ZN21FBT_test_notFull_TestD2Ev
FN:39,39,_ZN22FBT_test_findNode_Test8TestBodyEv
FN:39,39,_ZN22FBT_test_findNode_TestC2Ev
FN:39,39,_ZN22FBT_test_findNode_TestD0Ev
FN:39,39,_ZN22FBT_test_findNode_TestD2Ev
FN:5,5,_ZN25FBT_test_Constructor_Test8TestBodyEv
FN:5,5,_ZN25FBT_test_Constructor_TestC2Ev
FN:5,5,_ZN25FBT_test_Constructor_TestD0Ev
FN:5,5,_ZN25FBT_test_Constructor_TestD2Ev
FN:51,54,main
FNDA:1,_ZN21FBT_test_AddNode_Test8TestBodyEv
FNDA:1,_ZN21FBT_test_AddNode_TestC2Ev
FNDA:1,_ZN21FBT_test_AddNode_TestD0Ev
FNDA:1,_ZN21FBT_test_AddNode_TestD2Ev
FNDA:1,_ZN20FBT_test_isFull_Test8TestBodyEv
FNDA:1,_ZN20FBT_test_isFull_TestC2Ev
FNDA:1,_ZN20FBT_test_isFull_TestD0Ev
FNDA:1,_ZN20FBT_test_isFull_TestD2Ev
FNDA:1,_ZN21FBT_test_notFull_Test8TestBodyEv
FNDA:1,_ZN21FBT_test_notFull_TestC2Ev
FNDA:1,_ZN21FBT_test_notFull_TestD0Ev
FNDA:1,_ZN21FBT_test_notFull_TestD2Ev
FNDA:1,_ZN22FBT_test_findNode_Test8TestBodyEv
FNDA:1,_ZN22FBT_test_findNode_TestC2Ev
FNDA:1,_ZN22FBT_test_findNode_TestD0Ev
FNDA:1,_ZN22FBT_test_findNode_TestD2Ev
FNDA:1,_ZN25FBT_test_Constructor_Test8TestBodyEv
FNDA:1,_ZN25FBT_test_Constructor_TestC2Ev
FNDA:1,_ZN25FBT_test_Constructor_TestD0Ev
FNDA:1,_ZN25FBT_test_Constructor_TestD2Ev
FNDA:1,main
FNF:21
FNH:21
BRDA:6,0,0,1
BRDA:6,e0,1,0
BRDA:8,0,0,1
BRDA:8,e0,1,0
BRDA:8,0,2,1
BRDA:8,e0,3,0
BRDA:8,0,4,0
BRDA:8,0,5,1
BRDA:8,0,6,0
BRDA:8,e0,7,0
BRDA:8,0,8,0
BRDA:8,e0,9,0
BRDA:8,0,10,0
BRDA:8,e0,11,0
BRDA:13,0,0,1
BRDA:13,e0,1,0
BRDA:14,0,0,1
BRDA:14,e0,1,0
BRDA:15,0,0,1
BRDA:15,e0,1,0
BRDA:17,0,0,1
BRDA:17,e0,1,0
BRDA:17,0,2,1
BRDA:17,e0,3,0
BRDA:17,0,4,0
BRDA:17,0,5,1
BRDA:17,0,6,0
BRDA:17,e0,7,0
BRDA:17,0,8,0
BRDA:17,e0,9,0
BRDA:17,0,10,0
BRDA:17,e0,11,0
BRDA:18,0,0,1
BRDA:18,e0,1,0
BRDA:18,0,2,1
BRDA:18,e0,3,0
BRDA:18,0,4,0
BRDA:18,0,5,1
BRDA:18,0,6,0
BRDA:18,e0,7,0
BRDA:18,0,8,0
BRDA:18,e0,9,0
BRDA:18,0,10,0
BRDA:18,e0,11,0
BRDA:22,0,0,1
BRDA:22,e0,1,0
BRDA:23,0,0,1
BRDA:23,e0,1,0
BRDA:24,0,0,1
BRDA:24,e0,1,0
BRDA:27,0,0,1
BRDA:27,e0,1,0
BRDA:27,0,2,0
BRDA:27,0,3,1
BRDA:27,0,4,0
BRDA:27,e0,5,0
BRDA:27,0,6,0
BRDA:27,e0,7,0
BRDA:27,0,8,0
BRDA:27,e0,9,0
BRDA:27,0,10,0
BRDA:27,e0,11,0
BRDA:31,0,0,1
BRDA:31,e0,1,0
BRDA:32,0,0,1
BRDA:32,e0,1,0
BRDA:33,0,0,1
BRDA:33,e0,1,0
BRDA:34,0,0,1
BRDA:34,e0,1,0
BRDA:36,0,0,1
BRDA:36,e0,1,0
BRDA:36,0,2,0
BRDA:36,0,3,1
BRDA:36,0,4,0
BRDA:36,e0,5,0
BRDA:36,0,6,0
BRDA:36,e0,7,0
BRDA:36,0,8,0
BRDA:36,e0,9,0
BRDA:36,0,10,0
BRDA:36,e0,11,0
BRDA:40,0,0,1
BRDA:40,e0,1,0
BRDA:41,0,0,1
BRDA:41,e0,1,0
BRDA:42,0,0,1
BRDA:42,e0,1,0
BRDA:44,0,0,1
BRDA:44,e0,1,0
BRDA:44,0,2,1
BRDA:44,e0,3,0
BRDA:44,0,4,0
BRDA:44,0,5,1
BRDA:44,0,6,0
BRDA:44,e0,7,0
BRDA:44,0,8,0
BRDA:44,e0,9,0
BRDA:44,0,10,0
BRDA:44,e0,11,0
BRDA:45,0,0,1
BRDA:45,e0,1,0
BRDA:45,0,2,1
BRDA:45,e0,3,0
BRDA:45,0,4,0
BRDA:45,0,5,1
BRDA:45,0,6,0
BRDA:45,e0,7,0
BRDA:45,0,8,0
BRDA:45,e0,9,0
BRDA:45,0,10,0
BRDA:45,e0,11,0
BRDA:46,0,0,1
BRDA:46,e0,1,0
BRDA:46,0,2,1
BRDA:46,e0,3,0
BRDA:46,0,4,0
BRDA:46,0,5,1
BRDA:46,0,6,0
BRDA:46,e0,7,0
BRDA:46,0,8,0
BRDA:46,e0,9,0
BRDA:46,0,10,0
BRDA:46,e0,11,0
BRDA:48,0,0,1
BRDA:48,0,1,0
BRDA:48,0,2,1
BRDA:48,e0,3,0
BRDA:48,0,4,1
BRDA:48,0,5,0
BRDA:48,0,6,0
BRDA:48,e0,7,1
BRDA:48,0,8,0
BRDA:48,0,9,1
BRDA:48,0,10,0
BRDA:48,e0,11,0
BRDA:48,0,12,0
BRDA:48,e0,13,0
BRDA:48,0,14,0
BRDA:48,e0,15,0
BRDA:48,0,16,0
BRDA:48,e0,17,0
BRDA:48,0,18,1
BRDA:48,0,19,0
BRDA:48,0,20,0
BRDA:48,0,21,0
BRDA:48,e0,22,0
BRDA:48,0,23,0
BRDA:48,e0,24,0
BRDA:48,0,25,0
BRDA:48,e0,26,0
BRDA:48,0,27,0
BRDA:48,e0,28,0
BRDA:48,0,29,0
BRDA:48,e0,30,0
BRDA:48,0,31,0
BRDA:48,e0,32,0
BRDA:48,0,33,0
BRDA:48,e0,34,0
BRDA:48,0,35,0
BRDA:48,e0,36,0
BRF:161
BRH:42
DA:5,4
DA:6,1
DA:8,1
DA:9,1
DA:12,4
DA:13,1
DA:14,1
DA:15,1
DA:17,1
DA:18,1
DA:19,1
DA:21,4
DA:22,1
DA:23,1
DA:24,1
DA:27,1
DA:28,1
DA:30,4
DA:31,1
DA:32,1
DA:33,1
DA:34,1
DA:36,1
DA:37,1
DA:39,4
DA:40,1
DA:41,1
DA:42,1
DA:44,1
DA:45,1
DA:46,1
DA:48,1
DA:49,1
DA:51,1
DA:52,1
DA:53,1
LF:36
LH:36
end_of_record
TN:
SF:/home/kln735/4test_lab/test/test_flist.cpp
FN:16,16,_ZN26flist_ADD_WITH_SEARCH_Test8TestBodyEv
FN:16,16,_ZN26flist_ADD_WITH_SEARCH_TestC2Ev
FN:16,16,_ZN26flist_ADD_WITH_SEARCH_TestD0Ev
FN:16,16,_ZN26flist_ADD_WITH_SEARCH_TestD2Ev
FN:44,44,_ZN26flist_DEL_WITH_REMOVE_Test8TestBodyEv
FN:44,44,_ZN26flist_DEL_WITH_REMOVE_TestC2Ev
FN:44,44,_ZN26flist_DEL_WITH_REMOVE_TestD0Ev
FN:44,44,_ZN26flist_DEL_WITH_REMOVE_TestD2Ev
FN:81,84,main
FNDA:1,_ZN26flist_ADD_WITH_SEARCH_Test8TestBodyEv
FNDA:1,_ZN26flist_ADD_WITH_SEARCH_TestC2Ev
FNDA:1,_ZN26flist_ADD_WITH_SEARCH_TestD0Ev
FNDA:1,_ZN26flist_ADD_WITH_SEARCH_TestD2Ev
FNDA:1,_ZN26flist_DEL_WITH_REMOVE_Test8TestBodyEv
FNDA:1,_ZN26flist_DEL_WITH_REMOVE_TestC2Ev
FNDA:1,_ZN26flist_DEL_WITH_REMOVE_TestD0Ev
FNDA:1,_ZN26flist_DEL_WITH_REMOVE_TestD2Ev
FNDA:1,main
FNF:9
FNH:9
BRDA:20,0,0,1
BRDA:20,e0,1,0
BRDA:20,0,2,1
BRDA:20,e0,3,0
BRDA:21,0,0,1
BRDA:21,e0,1,0
BRDA:21,0,2,1
BRDA:21,e0,3,0
BRDA:22,0,0,1
BRDA:22,e0,1,0
BRDA:22,0,2,1
BRDA:22,e0,3,0
BRDA:23,0,0,1
BRDA:23,e0,1,0
BRDA:23,0,2,1
BRDA:23,e0,3,0
BRDA:24,0,0,1
BRDA:24,e0,1,0
BRDA:24,0,2,1
BRDA:24,e0,3,0
BRDA:25,0,0,1
BRDA:25,e0,1,0
BRDA:25,0,2,1
BRDA:25,e0,3,0
BRDA:27,0,0,1
BRDA:27,e0,1,0
BRDA:29,0,0,1
BRDA:29,e0,1,0
BRDA:29,0,2,1
BRDA:29,e0,3,0
BRDA:32,0,0,1
BRDA:32,e0,1,0
BRDA:32,0,2,1
BRDA:32,e0,3,0
BRDA:33,0,0,1
BRDA:33,e0,1,0
BRDA:33,0,2,1
BRDA:33,e0,3,0
BRDA:34,0,0,1
BRDA:34,e0,1,0
BRDA:34,0,2,1
BRDA:34,e0,3,0
BRDA:34,0,4,1
BRDA:34,e0,5,0
BRDA:34,0,6,1
BRDA:34,e0,7,0
BRDA:34,0,8,1
BRDA:34,e0,9,0
BRDA:34,0,10,1
BRDA:34,e0,11,0
BRDA:34,0,12,1
BRDA:34,e0,13,0
BRDA:34,0,14,1
BRDA:34,e0,15,0
BRDA:34,0,16,1
BRDA:34,e0,17,0
BRDA:34,0,18,1
BRDA:34,e0,19,0
BRDA:34,0,20,1
BRDA:34,e0,21,0
BRDA:37,0,0,1
BRDA:37,e0,1,0
BRDA:37,0,2,0
BRDA:37,0,3,1
BRDA:37,0,4,0
BRDA:37,e0,5,0
BRDA:37,0,6,0
BRDA:37,e0,7,0
BRDA:37,0,8,0
BRDA:37,e0,9,0
BRDA:38,0,0,1
BRDA:38,e0,1,0
BRDA:38,0,2,1
BRDA:38,e0,3,0
BRDA:38,0,4,1
BRDA:38,e0,5,0
BRDA:38,0,6,0
BRDA:38,0,7,1
BRDA:38,0,8,0
BRDA:38,e0,9,0
BRDA:38,0,10,0
BRDA:38,e0,11,0
BRDA:38,0,12,0
BRDA:38,e0,13,0
BRDA:39,0,0,1
BRDA:39,e0,1,0
BRDA:39,0,2,1
BRDA:39,e0,3,0
BRDA:39,0,4,1
BRDA:39,e0,5,0
BRDA:39,0,6,0
BRDA:39,0,7,1
BRDA:39,0,8,0
BRDA:39,e0,9,0
BRDA:39,0,10,0
BRDA:39,e0,11,0
BRDA:39,0,12,0
BRDA:39,e0,13,0
BRDA:40,0,0,1
BRDA:40,e0,1,0
BRDA:40,0,2,1
BRDA:40,e0,3,0
BRDA:40,0,4,1
BRDA:40,e0,5,0
BRDA:40,0,6,0
BRDA:40,0,7,1
BRDA:40,0,8,0
BRDA:40,e0,9,0
BRDA:40,0,10,0
BRDA:40,e0,11,0
BRDA:40,0,12,0
BRDA:40,e0,13,0
BRDA:41,0,0,1
BRDA:41,e0,1,0
BRDA:41,0,2,1
BRDA:41,e0,3,0
BRDA:41,0,4,1
BRDA:41,e0,5,0
BRDA:41,0,6,0
BRDA:41,0,7,1
BRDA:41,0,8,0
BRDA:41,e0,9,0
BRDA:41,0,10,0
BRDA:41,e0,11,0
BRDA:41,0,12,0
BRDA:41,e0,13,0
BRDA:46,0,0,1
BRDA:46,e0,1,0
BRDA:46,0,2,1
BRDA:46,e0,3,0
BRDA:47,0,0,1
BRDA:47,e0,1,0
BRDA:47,0,2,1
BRDA:47,e0,3,0
BRDA:48,0,0,1
BRDA:48,e0,1,0
BRDA:48,0,2,1
BRDA:48,e0,3,0
BRDA:49,0,0,1
BRDA:49,e0,1,0
BRDA:49,0,2,1
BRDA:49,e0,3,0
BRDA:50,0,0,1
BRDA:50,e0,1,0
BRDA:50,0,2,1
BRDA:50,e0,3,0
BRDA:51,0,0,1
BRDA:51,e0,1,0
BRDA:51,0,2,1
BRDA:51,e0,3,0
BRDA:56,0,0,1
BRDA:56,e0,1,0
BRDA:56,0,2,1
BRDA:56,e0,3,0
BRDA:57,0,0,1
BRDA:57,e0,1,0
BRDA:57,0,2,1
BRDA:57,e0,3,0
BRDA:58,0,0,1
BRDA:58,e0,1,0
BRDA:58,0,2,1
BRDA:58,e0,3,0
BRDA:59,0,0,1
BRDA:59,e0,1,0
BRDA:59,0,2,1
BRDA:59,e0,3,0
BRDA:66,0,0,1
BRDA:66,e0,1,0
BRDA:66,0,2,1
BRDA:66,e0,3,0
BRDA:66,0,4,0
BRDA:66,0,5,1
BRDA:66,0,6,0
BRDA:66,e0,7,0
BRDA:66,0,8,0
BRDA:66,e0,9,0
BRDA:66,0,10,0
BRDA:66,e0,11,0
BRDA:68,0,0,1
BRDA:68,e0,1,0
BRDA:68,0,2,1
BRDA:68,e0,3,0
BRDA:69,0,0,1
BRDA:69,e0,1,0
BRDA:69,0,2,1
BRDA:69,e0,3,0
BRDA:70,0,0,1
BRDA:70,e0,1,0
BRDA:70,0,2,1
BRDA:70,e0,3,0
BRDA:72,0,0,1
BRDA:72,e0,1,0
BRDA:72,0,2,1
BRDA:72,e0,3,0
BRDA:72,0,4,1
BRDA:72,e0,5,0
BRDA:72,0,6,1
BRDA:72,e0,7,0
BRDA:72,0,8,1
BRDA:72,e0,9,0
BRDA:72,0,10,0
BRDA:72,0,11,1
BRDA:72,0,12,0
BRDA:72,e0,13,0
BRDA:72,0,14,0
BRDA:72,e0,15,0
BRDA:72,0,16,0
BRDA:72,e0,17,0
BRDA:73,0,0,1
BRDA:73,e0,1,0
BRDA:73,0,2,1
BRDA:73,e0,3,0
BRDA:73,0,4,1
BRDA:73,e0,5,0
BRDA:73,0,6,0
BRDA:73,0,7,1
BRDA:73,0,8,0
BRDA:73,e0,9,0
BRDA:73,0,10,0
BRDA:73,e0,11,0
BRDA:73,0,12,0
BRDA:73,e0,13,0
BRF:222
BRH:87
DA:16,4
DA:18,1
DA:20,2
DA:21,2
DA:22,2
DA:23,2
DA:24,2
DA:25,2
DA:27,1
DA:29,2
DA:32,2
DA:33,2
DA:34,1
DA:37,1
DA:38,1
DA:39,1
DA:40,1
DA:41,1
DA:42,1
DA:44,4
DA:46,2
DA:47,2
DA:48,2
DA:49,2
DA:50,2
DA:51,2
DA:54,1
DA:56,2
DA:57,2
DA:58,2
DA:59,2
DA:61,1
DA:62,1
DA:63,1
DA:64,1
DA:66,1
DA:68,2
DA:69,2
DA:70,2
DA:72,1
DA:73,1
DA:75,1
DA:76,1
DA:77,1
DA:79,1
DA:81,1
DA:82,1
DA:83,1
LF:48
LH:48
end_of_record
TN:
SF:/home/kln735/4test_lab/test/test_hash.cpp
FN:15,15,_ZN35hash_int_ALL_OPERATION_FOR_INT_Test8TestBodyEv
FN:15,15,_ZN35hash_int_ALL_OPERATION_FOR_INT_TestC2Ev
FN:15,15,_ZN35hash_int_ALL_OPERATION_FOR_INT_TestD0Ev
FN:15,15,_ZN35hash_int_ALL_OPERATION_FOR_INT_TestD2Ev
FN:40,40,_ZN35hash_str_ALL_OPERATION_FOR_STR_Test8TestBodyEv
FN:40,40,_ZN35hash_str_ALL_OPERATION_FOR_STR_TestC2Ev
FN:40,40,_ZN35hash_str_ALL_OPERATION_FOR_STR_TestD0Ev
FN:40,40,_ZN35hash_str_ALL_OPERATION_FOR_STR_TestD2Ev
FN:66,69,main
FNDA:1,_ZN35hash_int_ALL_OPERATION_FOR_INT_Test8TestBodyEv
FNDA:1,_ZN35hash_int_ALL_OPERATION_FOR_INT_TestC2Ev
FNDA:1,_ZN35hash_int_ALL_OPERATION_FOR_INT_TestD0Ev
FNDA:1,_ZN35hash_int_ALL_OPERATION_FOR_INT_TestD2Ev
FNDA:1,_ZN35hash_str_ALL_OPERATION_FOR_STR_Test8TestBodyEv
FNDA:1,_ZN35hash_str_ALL_OPERATION_FOR_STR_TestC2Ev
FNDA:1,_ZN35hash_str_ALL_OPERATION_FOR_STR_TestD0Ev
FNDA:1,_ZN35hash_str_ALL_OPERATION_FOR_STR_TestD2Ev
FNDA:1,main
FNF:9
FNH:9
BRDA:17,0,0,1
BRDA:17,e0,1,0
BRDA:18,0,0,1
BRDA:18,e0,1,0
BRDA:19,0,0,1
BRDA:19,e0,1,0
BRDA:24,0,0,1
BRDA:24,e0,1,0
BRDA:24,0,2,1
BRDA:24,e0,3,0
BRDA:24,0,4,0
BRDA:24,0,5,1
BRDA:24,0,6,0
BRDA:24,e0,7,0
BRDA:24,0,8,0
BRDA:24,e0,9,0
BRDA:24,0,10,0
BRDA:24,e0,11,0
BRDA:25,0,0,1
BRDA:25,e0,1,0
BRDA:25,0,2,1
BRDA:25,e0,3,0
BRDA:25,0,4,0
BRDA:25,0,5,1
BRDA:25,0,6,0
BRDA:25,e0,7,0
BRDA:25,0,8,0
BRDA:25,e0,9,0
BRDA:25,0,10,0
BRDA:25,e0,11,0
BRDA:27,0,0,1
BRDA:27,e0,1,0
BRDA:28,0,0,1
BRDA:28,e0,1,0
BRDA:28,0,2,1
BRDA:28,e0,3,0
BRDA:28,0,4,0
BRDA:28,0,5,1
BRDA:28,0,6,0
BRDA:28,e0,7,0
BRDA:28,0,8,0
BRDA:28,e0,9,0
BRDA:28,0,10,0
BRDA:28,e0,11,0
BRDA:30,0,0,1
BRDA:30,e0,1,0
BRDA:31,0,0,1
BRDA:31,e0,1,0
BRDA:32,0,0,1
BRDA:32,e0,1,0
BRDA:34,0,0,1
BRDA:34,0,1,0
BRDA:34,0,2,1
BRDA:34,e0,3,0
BRDA:34,0,4,1
BRDA:34,0,5,0
BRDA:34,0,6,0
BRDA:34,e0,7,1
BRDA:34,0,8,0
BRDA:34,0,9,1
BRDA:34,0,10,0
BRDA:34,e0,11,0
BRDA:34,0,12,0
BRDA:34,e0,13,0
BRDA:34,0,14,0
BRDA:34,e0,15,0
BRDA:34,0,16,0
BRDA:34,e0,17,0
BRDA:34,0,18,1
BRDA:34,0,19,0
BRDA:34,0,20,0
BRDA:34,0,21,0
BRDA:34,e0,22,0
BRDA:34,0,23,0
BRDA:34,e0,24,0
BRDA:34,0,25,0
BRDA:34,e0,26,0
BRDA:34,0,27,0
BRDA:34,e0,28,0
BRDA:34,0,29,0
BRDA:34,e0,30,0
BRDA:34,0,31,0
BRDA:34,e0,32,0
BRDA:34,0,33,0
BRDA:34,e0,34,0
BRDA:34,0,35,0
BRDA:34,e0,36,0
BRDA:35,0,0,1
BRDA:35,0,1,0
BRDA:35,0,2,1
BRDA:35,e0,3,0
BRDA:35,0,4,1
BRDA:35,0,5,0
BRDA:35,0,6,0
BRDA:35,e0,7,1
BRDA:35,0,8,0
BRDA:35,0,9,1
BRDA:35,0,10,0
BRDA:35,e0,11,0
BRDA:35,0,12,0
BRDA:35,e0,13,0
BRDA:35,0,14,0
BRDA:35,e0,15,0
BRDA:35,0,16,0
BRDA:35,e0,17,0
BRDA:35,0,18,1
BRDA:35,0,19,0
BRDA:35,0,20,0
BRDA:35,0,21,0
BRDA:35,e0,22,0
BRDA:35,0,23,0
BRDA:35,e0,24,0
BRDA:35,0,25,0
BRDA:35,e0,26,0
BRDA:35,0,27,0
BRDA:35,e0,28,0
BRDA:35,0,29,0
BRDA:35,e0,30,0
BRDA:35,0,31,0
BRDA:35,e0,32,0
BRDA:35,0,33,0
BRDA:35,e0,34,0
BRDA:35,0,35,0
BRDA:35,e0,36,0
BRDA:36,0,0,1
BRDA:36,0,1,0
BRDA:36,0,2,1
BRDA:36,e0,3,0
BRDA:36,0,4,1
BRDA:36,0,5,0
BRDA:36,0,6,0
BRDA:36,e0,7,1
BRDA:36,0,8,0
BRDA:36,0,9,1
BRDA:36,0,10,0
BRDA:36,e0,11,0
BRDA:36,0,12,0
BRDA:36,e0,13,0
BRDA:36,0,14,0
BRDA:36,e0,15,0
BRDA:36,0,16,0
BRDA:36,e0,17,0
BRDA:36,0,18,1
BRDA:36,0,19,0
BRDA:36,0,20,0
BRDA:36,0,21,0
BRDA:36,e0,22,0
BRDA:36,0,23,0
BRDA:36,e0,24,0
BRDA:36,0,25,0
BRDA:36,e0,26,0
BRDA:36,0,27,0
BRDA:36,e0,28,0
BRDA:36,0,29,0
BRDA:36,e0,30,0
BRDA:36,0,31,0
BRDA:36,e0,32,0
BRDA:36,0,33,0
BRDA:36,e0,34,0
BRDA:36,0,35,0
BRDA:36,e0,36,0
BRDA:42,0,0,1
BRDA:42,e0,1,0
BRDA:42,0,2,1
BRDA:42,e0,3,0
BRDA:42,0,4,1
BRDA:42,e0,5,0
BRDA:43,0,0,1
BRDA:43,e0,1,0
BRDA:43,0,2,1
BRDA:43,e0,3,0
BRDA:43,0,4,1
BRDA:43,e0,5,0
BRDA:44,0,0,1
BRDA:44,e0,1,0
BRDA:44,0,2,1
BRDA:44,e0,3,0
BRDA:44,0,4,1
BRDA:44,e0,5,0
BRDA:45,0,0,1
BRDA:45,e0,1,0
BRDA:45,0,2,1
BRDA:45,e0,3,0
BRDA:45,0,4,1
BRDA:45,e0,5,0
BRDA:46,0,0,1
BRDA:46,e0,1,0
BRDA:46,0,2,1
BRDA:46,e0,3,0
BRDA:46,0,4,1
BRDA:46,e0,5,0
BRDA:47,0,0,1
BRDA:47,e0,1,0
BRDA:47,0,2,1
BRDA:47,e0,3,0
BRDA:47,0,4,1
BRDA:47,e0,5,0
BRDA:51,0,0,1
BRDA:51,e0,1,0
BRDA:51,0,2,1
BRDA:51,e0,3,0
BRDA:51,0,4,1
BRDA:51,e0,5,0
BRDA:51,0,6,0
BRDA:51,0,7,1
BRDA:51,0,8,0
BRDA:51,e0,9,0
BRDA:51,0,10,0
BRDA:51,e0,11,0
BRDA:51,0,12,0
BRDA:51,e0,13,0
BRDA:52,0,0,1
BRDA:52,e0,1,0
BRDA:52,0,2,1
BRDA:52,e0,3,0
BRDA:52,0,4,1
BRDA:52,e0,5,0
BRDA:52,0,6,0
BRDA:52,0,7,1
BRDA:52,0,8,0
BRDA:52,e0,9,0
BRDA:52,0,10,0
BRDA:52,e0,11,0
BRDA:52,0,12,0
BRDA:52,e0,13,0
BRDA:54,0,0,1
BRDA:54,e0,1,0
BRDA:54,0,2,1
BRDA:54,e0,3,0
BRDA:54,0,4,1
BRDA:54,e0,5,0
BRDA:55,0,0,1
BRDA:55,e0,1,0
BRDA:55,0,2,1
BRDA:55,e0,3,0
BRDA:55,0,4,1
BRDA:55,e0,5,0
BRDA:55,0,6,0
BRDA:55,0,7,1
BRDA:55,0,8,0
BRDA:55,e0,9,0
BRDA:55,0,10,0
BRDA:55,e0,11,0
BRDA:55,0,12,0
BRDA:55,e0,13,0
BRDA:57,0,0,1
BRDA:57,e0,1,0
BRDA:57,0,2,1
BRDA:57,e0,3,0
BRDA:58,0,0,1
BRDA:58,e0,1,0
BRDA:58,0,2,1
BRDA:58,e0,3,0
BRDA:60,0,0,1
BRDA:60,0,1,0
BRDA:60,0,2,1
BRDA:60,e0,3,0
BRDA:60,0,4,1
BRDA:60,0,5,0
BRDA:60,0,6,1
BRDA:60,e0,7,0
BRDA:60,0,8,0
BRDA:60,e0,9,1
BRDA:60,0,10,0
BRDA:60,0,11,1
BRDA:60,0,12,0
BRDA:60,e0,13,0
BRDA:60,0,14,0
BRDA:60,e0,15,0
BRDA:60,0,16,0
BRDA:60,e0,17,0
BRDA:60,0,18,0
BRDA:60,e0,19,0
BRDA:60,0,20,1
BRDA:60,0,21,0
BRDA:60,0,22,0
BRDA:60,0,23,0
BRDA:60,e0,24,0
BRDA:60,0,25,0
BRDA:60,e0,26,0
BRDA:60,0,27,0
BRDA:60,e0,28,0
BRDA:60,0,29,0
BRDA:60,e0,30,0
BRDA:60,0,31,0
BRDA:60,e0,32,0
BRDA:60,0,33,0
BRDA:60,e0,34,0
BRDA:60,0,35,0
BRDA:60,e0,36,0
BRDA:60,0,37,0
BRDA:60,e0,38,0
BRDA:61,0,0,1
BRDA:61,0,1,0
BRDA:61,0,2,1
BRDA:61,e0,3,0
BRDA:61,0,4,1
BRDA:61,0,5,0
BRDA:61,0,6,1
BRDA:61,e0,7,0
BRDA:61,0,8,0
BRDA:61,e0,9,1
BRDA:61,0,10,0
BRDA:61,0,11,1
BRDA:61,0,12,0
BRDA:61,e0,13,0
BRDA:61,0,14,0
BRDA:61,e0,15,0
BRDA:61,0,16,0
BRDA:61,e0,17,0
BRDA:61,0,18,0
BRDA:61,e0,19,0
BRDA:61,0,20,1
BRDA:61,0,21,0
BRDA:61,0,22,0
BRDA:61,0,23,0
BRDA:61,e0,24,0
BRDA:61,0,25,0
BRDA:61,e0,26,0
BRDA:61,0,27,0
BRDA:61,e0,28,0
BRDA:61,0,29,0
BRDA:61,e0,30,0
BRDA:61,0,31,0
BRDA:61,e0,32,0
BRDA:61,0,33,0
BRDA:61,e0,34,0
BRDA:61,0,35,0
BRDA:61,e0,36,0
BRDA:61,0,37,0
BRDA:61,e0,38,0
BRF:331
BRH:85
DA:15,4
DA:17,1
DA:18,1
DA:19,1
DA:22,1
DA:24,1
DA:25,1
DA:27,1
DA:28,1
DA:30,1
DA:31,1
DA:32,1
DA:34,1
DA:35,1
DA:36,1
DA:38,1
DA:40,4
DA:42,4
DA:43,4
DA:44,4
DA:45,4
DA:46,4
DA:47,4
DA:49,1
DA:51,3
DA:52,3
DA:54,4
DA:55,3
DA:57,2
DA:58,2
DA:60,3
DA:61,3
DA:63,1
DA:66,1
DA:67,1
DA:68,1
LF:36
LH:36
end_of_record
TN:
SF:/home/kln735/4test_lab/test/test_llist.cpp
FN:104,107,main
FN:15,15,_ZN28ListTest_ADD_AND_SEARCH_Test8TestBodyEv
FN:15,15,_ZN28ListTest_ADD_AND_SEARCH_TestC2Ev
FN:15,15,_ZN28ListTest_ADD_AND_SEARCH_TestD0Ev
FN:15,15,_ZN28ListTest_ADD_AND_SEARCH_TestD2Ev
FN:64,64,_ZN26ListTest_DEL_WITH_REM_Test8TestBodyEv
FN:64,64,_ZN26ListTest_DEL_WITH_REM_TestC2Ev
FN:64,64,_ZN26ListTest_DEL_WITH_REM_TestD0Ev
FN:64,64,_ZN26ListTest_DEL_WITH_REM_TestD2Ev
FNDA:1,main
FNDA:1,_ZN28ListTest_ADD_AND_SEARCH_Test8TestBodyEv
FNDA:1,_ZN28ListTest_ADD_AND_SEARCH_TestC2Ev
FNDA:1,_ZN28ListTest_ADD_AND_SEARCH_TestD0Ev
FNDA:1,_ZN28ListTest_ADD_AND_SEARCH_TestD2Ev
FNDA:1,_ZN26ListTest_DEL_WITH_REM_Test8TestBodyEv
FNDA:1,_ZN26ListTest_DEL_WITH_REM_TestC2Ev
FNDA:1,_ZN26ListTest_DEL_WITH_REM_TestD0Ev
FNDA:1,_ZN26ListTest_DEL_WITH_REM_TestD2Ev
FNF:9
FNH:9
BRDA:16,0,0,6
BRDA:16,e0,1,0
BRDA:16,0,2,6
BRDA:16,0,3,1
BRDA:16,0,4,1
BRDA:16,e0,5,0
BRDA:16,0,6,6
BRDA:16,0,7,1
BRDA:16,0,8,0
BRDA:16,0,9,0
BRDA:16,0,10,0
BRDA:16,0,11,0
BRDA:16,0,12,0
BRDA:16,0,13,0
BRDA:18,0,0,6
BRDA:18,0,1,1
BRDA:19,0,0,6
BRDA:19,e0,1,0
BRDA:19,0,2,6
BRDA:19,e0,3,0
BRDA:21,0,0,3
BRDA:21,0,1,3
BRDA:22,0,0,3
BRDA:22,e0,1,0
BRDA:22,0,2,3
BRDA:22,e0,3,0
BRDA:24,0,0,3
BRDA:24,e0,1,0
BRDA:24,0,2,3
BRDA:24,e0,3,0
BRDA:28,0,0,1
BRDA:28,e0,1,0
BRDA:30,0,0,1
BRDA:30,e0,1,0
BRDA:30,0,2,1
BRDA:30,e0,3,0
BRDA:36,0,0,1
BRDA:36,e0,1,0
BRDA:36,0,2,1
BRDA:36,e0,3,0
BRDA:38,0,0,0
BRDA:38,0,1,0
BRDA:43,0,0,1
BRDA:43,e0,1,0
BRDA:43,0,2,1
BRDA:43,e0,3,0
BRDA:45,0,0,0
BRDA:45,0,1,0
BRDA:49,0,0,1
BRDA:49,e0,1,0
BRDA:49,0,2,0
BRDA:49,0,3,1
BRDA:49,0,4,0
BRDA:49,e0,5,0
BRDA:49,0,6,0
BRDA:49,e0,7,0
BRDA:49,0,8,0
BRDA:49,e0,9,0
BRDA:52,0,0,6
BRDA:52,0,1,1
BRDA:53,0,0,6
BRDA:53,e0,1,0
BRDA:53,0,2,6
BRDA:53,e0,3,0
BRDA:54,0,0,5
BRDA:54,0,1,1
BRDA:55,0,0,5
BRDA:55,e0,1,0
BRDA:59,0,0,1
BRDA:59,e0,1,0
BRDA:59,0,2,1
BRDA:59,e0,3,0
BRDA:59,0,4,1
BRDA:59,e0,5,0
BRDA:59,0,6,0
BRDA:59,0,7,1
BRDA:59,0,8,0
BRDA:59,e0,9,0
BRDA:59,0,10,0
BRDA:59,e0,11,0
BRDA:59,0,12,0
BRDA:59,e0,13,0
BRDA:60,0,0,1
BRDA:60,e0,1,0
BRDA:60,0,2,1
BRDA:60,e0,3,0
BRDA:60,0,4,1
BRDA:60,e0,5,0
BRDA:60,0,6,1
BRDA:60,e0,7,0
BRDA:60,0,8,0
BRDA:60,0,9,1
BRDA:60,0,10,0
BRDA:60,e0,11,0
BRDA:60,0,12,0
BRDA:60,e0,13,0
BRDA:60,0,14,0
BRDA:60,e0,15,0
BRDA:69,0,0,1
BRDA:69,e0,1,0
BRDA:69,0,2,1
BRDA:69,e0,3,0
BRDA:70,0,0,1
BRDA:70,e0,1,0
BRDA:70,0,2,1
BRDA:70,e0,3,0
BRDA:71,0,0,1
BRDA:71,e0,1,0
BRDA:71,0,2,1
BRDA:71,e0,3,0
BRDA:72,0,0,1
BRDA:72,e0,1,0
BRDA:72,0,2,1
BRDA:72,e0,3,0
BRDA:73,0,0,1
BRDA:73,e0,1,0
BRDA:73,0,2,1
BRDA:73,e0,3,0
BRDA:74,0,0,1
BRDA:74,e0,1,0
BRDA:74,0,2,1
BRDA:74,e0,3,0
BRDA:76,0,0,1
BRDA:76,e0,1,0
BRDA:76,0,2,0
BRDA:76,0,3,1
BRDA:76,0,4,0
BRDA:76,e0,5,0
BRDA:76,0,6,0
BRDA:76,e0,7,0
BRDA:76,0,8,0
BRDA:76,e0,9,0
BRDA:78,0,0,1
BRDA:78,e0,1,0
BRDA:78,0,2,1
BRDA:78,e0,3,0
BRDA:79,0,0,1
BRDA:79,e0,1,0
BRDA:79,0,2,1
BRDA:79,e0,3,0
BRDA:80,0,0,1
BRDA:80,e0,1,0
BRDA:80,0,2,1
BRDA:80,e0,3,0
BRDA:81,0,0,1
BRDA:81,e0,1,0
BRDA:81,0,2,1
BRDA:81,e0,3,0
BRDA:88,0,0,1
BRDA:88,e0,1,0
BRDA:88,0,2,1
BRDA:88,e0,3,0
BRDA:88,0,4,0
BRDA:88,0,5,1
BRDA:88,0,6,0
BRDA:88,e0,7,0
BRDA:88,0,8,0
BRDA:88,e0,9,0
BRDA:88,0,10,0
BRDA:88,e0,11,0
BRDA:90,0,0,1
BRDA:90,e0,1,0
BRDA:90,0,2,1
BRDA:90,e0,3,0
BRDA:91,0,0,1
BRDA:91,e0,1,0
BRDA:91,0,2,1
BRDA:91,e0,3,0
BRDA:92,0,0,1
BRDA:92,e0,1,0
BRDA:92,0,2,1
BRDA:92,e0,3,0
BRDA:94,0,0,1
BRDA:94,e0,1,0
BRDA:94,0,2,1
BRDA:94,e0,3,0
BRDA:94,0,4,1
BRDA:94,e0,5,0
BRDA:94,0,6,1
BRDA:94,e0,7,0
BRDA:94,0,8,1
BRDA:94,e0,9,0
BRDA:94,0,10,0
BRDA:94,0,11,1
BRDA:94,0,12,0
BRDA:94,e0,13,0
BRDA:94,0,14,0
BRDA:94,e0,15,0
BRDA:94,0,16,0
BRDA:94,e0,17,0
BRDA:95,0,0,1
BRDA:95,e0,1,0
BRDA:95,0,2,1
BRDA:95,e0,3,0
BRDA:95,0,4,1
BRDA:95,e0,5,0
BRDA:95,0,6,0
BRDA:95,0,7,1
BRDA:95,0,8,0
BRDA:95,e0,9,0
BRDA:95,0,10,0
BRDA:95,e0,11,0
BRDA:95,0,12,0
BRDA:95,e0,13,0
BRF:204
BRH:82
DA:15,4
DA:16,13
DA:18,7
DA:19,6
DA:20,6
DA:21,6
DA:22,3
DA:24,3
DA:26,6
DA:28,1
DA:30,2
DA:32,1
DA:33,1
DA:36,2
DA:37,1
DA:38,0
DA:39,0
DA:40,0
DA:43,2
DA:44,1
DA:45,0
DA:46,0
DA:47,0
DA:49,1
DA:51,2
DA:52,7
DA:53,6
DA:54,6
DA:55,5
DA:59,1
DA:60,1
DA:61,1
DA:64,4
DA:66,1
DA:67,1
DA:69,2
DA:70,2
DA:71,2
DA:72,2
DA:73,2
DA:74,2
DA:76,1
DA:78,2
DA:79,2
DA:80,2
DA:81,2
DA:83,1
DA:84,1
DA:85,1
DA:86,1
DA:88,1
DA:90,2
DA:91,2
DA:92,2
DA:94,1
DA:95,1
DA:97,1
DA:98,1
DA:99,1
DA:102,1
DA:104,1
DA:105,1
DA:106,1
LF:63
LH:57
end_of_record
TN:
SF:/home/kln735/4test_lab/test/test_queue.cpp
FN:16,16,_ZN42queue_int_PUSH_WITH_RANDOM_OPERATIONS_Test8TestBodyEv
FN:16,16,_ZN42queue_int_PUSH_WITH_RANDOM_OPERATIONS_TestC2Ev
FN:16,16,_ZN42queue_int_PUSH_WITH_RANDOM_OPERATIONS_TestD0Ev
FN:16,16,_ZN42queue_int_PUSH_WITH_RANDOM_OPERATIONS_TestD2Ev
FN:47,47,_ZN42queue_str_PUSH_WITH_RANDOM_OPERATIONS_Test8TestBodyEv
FN:47,47,_ZN42queue_str_PUSH_WITH_RANDOM_OPERATIONS_TestC2Ev
FN:47,47,_ZN42queue_str_PUSH_WITH_RANDOM_OPERATIONS_TestD0Ev
FN:47,47,_ZN42queue_str_PUSH_WITH_RANDOM_OPERATIONS_TestD2Ev
FN:71,74,main
FNDA:1,_ZN42queue_int_PUSH_WITH_RANDOM_OPERATIONS_Test8TestBodyEv
FNDA:1,_ZN42queue_int_PUSH_WITH_RANDOM_OPERATIONS_TestC2Ev
FNDA:1,_ZN42queue_int_PUSH_WITH_RANDOM_OPERATIONS_TestD0Ev
FNDA:1,_ZN42queue_int_PUSH_WITH_RANDOM_OPERATIONS_TestD2Ev
FNDA:1,_ZN42queue_str_PUSH_WITH_RANDOM_OPERATIONS_Test8TestBodyEv
FNDA:1,_ZN42queue_str_PUSH_WITH_RANDOM_OPERATIONS_TestC2Ev
FNDA:1,_ZN42queue_str_PUSH_WITH_RANDOM_OPERATIONS_TestD0Ev
FNDA:1,_ZN42queue_str_PUSH_WITH_RANDOM_OPERATIONS_TestD2Ev
FNDA:1,main
FNF:9
FNH:9
BRDA:18,0,0,1
BRDA:18,e0,1,0
BRDA:19,0,0,1
BRDA:19,e0,1,0
BRDA:19,0,2,1
BRDA:19,e0,3,0
BRDA:20,0,0,1
BRDA:20,e0,1,0
BRDA:22,0,0,0
BRDA:22,0,1,1
BRDA:22,0,2,0
BRDA:22,e0,3,0
BRDA:22,0,4,0
BRDA:22,e0,5,0
BRDA:22,0,6,0
BRDA:22,e0,7,0
BRDA:22,0,8,0
BRDA:22,e0,9,0
BRDA:24,0,0,10
BRDA:24,0,1,1
BRDA:25,0,0,10
BRDA:25,e0,1,0
BRDA:26,0,0,10
BRDA:26,e0,1,0
BRDA:29,0,0,0
BRDA:29,0,1,1
BRDA:29,0,2,0
BRDA:29,e0,3,0
BRDA:29,0,4,0
BRDA:29,e0,5,0
BRDA:29,0,6,0
BRDA:29,e0,7,0
BRDA:29,0,8,0
BRDA:29,e0,9,0
BRDA:31,0,0,1
BRDA:31,e0,1,0
BRDA:31,0,2,0
BRDA:31,0,3,1
BRDA:31,0,4,0
BRDA:31,e0,5,0
BRDA:31,0,6,0
BRDA:31,e0,7,0
BRDA:31,0,8,0
BRDA:31,e0,9,0
BRDA:32,0,0,1
BRDA:32,e0,1,0
BRDA:32,0,2,1
BRDA:32,e0,3,0
BRDA:32,0,4,0
BRDA:32,0,5,1
BRDA:32,0,6,0
BRDA:32,e0,7,0
BRDA:32,0,8,0
BRDA:32,e0,9,0
BRDA:32,0,10,0
BRDA:32,e0,11,0
BRDA:35,0,0,10
BRDA:35,0,1,1
BRDA:36,0,0,10
BRDA:36,e0,1,0
BRDA:37,0,0,10
BRDA:37,e0,1,0
BRDA:40,0,0,1
BRDA:40,e0,1,0
BRDA:42,0,0,0
BRDA:42,0,1,1
BRDA:42,0,2,0
BRDA:42,e0,3,0
BRDA:42,0,4,0
BRDA:42,e0,5,0
BRDA:42,0,6,0
BRDA:42,e0,7,0
BRDA:42,0,8,0
BRDA:42,e0,9,0
BRDA:44,0,0,1
BRDA:44,e0,1,0
BRDA:44,0,2,0
BRDA:44,0,3,1
BRDA:44,0,4,0
BRDA:44,e0,5,0
BRDA:44,0,6,0
BRDA:44,e0,7,0
BRDA:44,0,8,0
BRDA:44,e0,9,0
BRDA:49,0,0,0
BRDA:49,0,1,1
BRDA:49,0,2,0
BRDA:49,e0,3,0
BRDA:49,0,4,0
BRDA:49,e0,5,0
BRDA:49,0,6,0
BRDA:49,e0,7,0
BRDA:49,0,8,0
BRDA:49,e0,9,0
BRDA:51,0,0,1
BRDA:51,e0,1,0
BRDA:51,0,2,1
BRDA:51,e0,3,0
BRDA:51,0,4,1
BRDA:51,e0,5,0
BRDA:51,0,6,1
BRDA:51,e0,7,0
BRDA:51,0,8,1
BRDA:51,e0,9,0
BRDA:51,0,10,1
BRDA:51,e0,11,0
BRDA:51,0,12,1
BRDA:51,e0,13,0
BRDA:51,0,14,1
BRDA:51,e0,15,0
BRDA:51,0,16,1
BRDA:51,e0,17,0
BRDA:51,0,18,1
BRDA:51,e0,19,0
BRDA:51,0,20,10
BRDA:51,0,21,1
BRDA:51,0,22,0
BRDA:51,0,23,0
BRDA:51,0,24,0
BRDA:51,0,25,0
BRDA:51,0,26,0
BRDA:51,0,27,0
BRDA:52,0,0,10
BRDA:52,0,1,1
BRDA:53,0,0,10
BRDA:53,e0,1,0
BRDA:56,0,0,1
BRDA:56,e0,1,0
BRDA:58,0,0,0
BRDA:58,0,1,1
BRDA:58,0,2,0
BRDA:58,e0,3,0
BRDA:58,0,4,0
BRDA:58,e0,5,0
BRDA:58,0,6,0
BRDA:58,e0,7,0
BRDA:58,0,8,0
BRDA:58,e0,9,0
BRDA:59,0,0,1
BRDA:59,e0,1,0
BRDA:59,0,2,0
BRDA:59,0,3,1
BRDA:59,0,4,0
BRDA:59,e0,5,0
BRDA:59,0,6,0
BRDA:59,e0,7,0
BRDA:59,0,8,0
BRDA:59,e0,9,0
BRDA:61,0,0,10
BRDA:61,0,1,1
BRDA:62,0,0,10
BRDA:62,e0,1,0
BRDA:66,0,0,0
BRDA:66,0,1,1
BRDA:66,0,2,0
BRDA:66,e0,3,0
BRDA:66,0,4,0
BRDA:66,e0,5,0
BRDA:66,0,6,0
BRDA:66,e0,7,0
BRDA:66,0,8,0
BRDA:66,e0,9,0
BRDA:67,0,0,1
BRDA:67,e0,1,0
BRDA:67,0,2,0
BRDA:67,0,3,1
BRDA:67,0,4,0
BRDA:67,e0,5,0
BRDA:67,0,6,0
BRDA:67,e0,7,0
BRDA:67,0,8,0
BRDA:67,e0,9,0
BRF:172
BRH:49
DA:16,4
DA:18,1
DA:19,1
DA:20,1
DA:22,1
DA:24,11
DA:25,10
DA:26,10
DA:29,1
DA:31,1
DA:32,1
DA:35,11
DA:36,10
DA:37,10
DA:40,1
DA:42,1
DA:44,1
DA:45,1
DA:47,4
DA:49,1
DA:51,13
DA:52,11
DA:53,10
DA:56,1
DA:58,1
DA:59,1
DA:61,11
DA:62,10
DA:66,1
DA:67,1
DA:68,1
DA:71,1
DA:72,1
DA:73,1
LF:34
LH:34
end_of_record
TN:
SF:/home/kln735/4test_lab/test/test_stack.cpp
FN:15,15,_ZN40stack_int_PUSH_WITH_OTHER_OPERATION_Test8TestBodyEv
FN:15,15,_ZN40stack_int_PUSH_WITH_OTHER_OPERATION_TestC2Ev
FN:15,15,_ZN40stack_int_PUSH_WITH_OTHER_OPERATION_TestD0Ev
FN:15,15,_ZN40stack_int_PUSH_WITH_OTHER_OPERATION_TestD2Ev
FN:42,42,_ZN39stack_str_POP_WITH_OTHER_OPERATION_Test8TestBodyEv
FN:42,42,_ZN39stack_str_POP_WITH_OTHER_OPERATION_TestC2Ev
FN:42,42,_ZN39stack_str_POP_WITH_OTHER_OPERATION_TestD0Ev
FN:42,42,_ZN39stack_str_POP_WITH_OTHER_OPERATION_TestD2Ev
FN:62,65,main
FNDA:1,_ZN40stack_int_PUSH_WITH_OTHER_OPERATION_Test8TestBodyEv
FNDA:1,_ZN40stack_int_PUSH_WITH_OTHER_OPERATION_TestC2Ev
FNDA:1,_ZN40stack_int_PUSH_WITH_OTHER_OPERATION_TestD0Ev
FNDA:1,_ZN40stack_int_PUSH_WITH_OTHER_OPERATION_TestD2Ev
FNDA:1,_ZN39stack_str_POP_WITH_OTHER_OPERATION_Test8TestBodyEv
FNDA:1,_ZN39stack_str_POP_WITH_OTHER_OPERATION_TestC2Ev
FNDA:1,_ZN39stack_str_POP_WITH_OTHER_OPERATION_TestD0Ev
FNDA:1,_ZN39stack_str_POP_WITH_OTHER_OPERATION_TestD2Ev
FNDA:1,main
FNF:9
FNH:9
BRDA:16,0,0,1
BRDA:16,e0,1,0
BRDA:17,0,0,1
BRDA:17,e0,1,0
BRDA:18,0,0,1
BRDA:18,e0,1,0
BRDA:19,0,0,1
BRDA:19,e0,1,0
BRDA:20,0,0,1
BRDA:20,e0,1,0
BRDA:21,0,0,1
BRDA:21,e0,1,0
BRDA:22,0,0,1
BRDA:22,e0,1,0
BRDA:23,0,0,1
BRDA:23,e0,1,0
BRDA:24,0,0,1
BRDA:24,e0,1,0
BRDA:25,0,0,1
BRDA:25,e0,1,0
BRDA:26,0,0,1
BRDA:26,e0,1,0
BRDA:30,0,0,1
BRDA:30,e0,1,0
BRDA:30,0,2,0
BRDA:30,0,3,1
BRDA:30,0,4,0
BRDA:30,e0,5,0
BRDA:30,0,6,0
BRDA:30,e0,7,0
BRDA:30,0,8,0
BRDA:30,e0,9,0
BRDA:31,0,0,1
BRDA:31,e0,1,0
BRDA:31,0,2,1
BRDA:31,e0,3,0
BRDA:31,0,4,0
BRDA:31,0,5,1
BRDA:31,0,6,0
BRDA:31,e0,7,0
BRDA:31,0,8,0
BRDA:31,e0,9,0
BRDA:31,0,10,0
BRDA:31,e0,11,0
BRDA:38,0,0,1
BRDA:38,e0,1,0
BRDA:38,0,2,0
BRDA:38,0,3,1
BRDA:38,0,4,0
BRDA:38,e0,5,0
BRDA:38,0,6,0
BRDA:38,e0,7,0
BRDA:38,0,8,0
BRDA:38,e0,9,0
BRDA:39,0,0,1
BRDA:39,e0,1,0
BRDA:39,0,2,1
BRDA:39,e0,3,0
BRDA:39,0,4,0
BRDA:39,0,5,1
BRDA:39,0,6,0
BRDA:39,e0,7,0
BRDA:39,0,8,0
BRDA:39,e0,9,0
BRDA:39,0,10,0
BRDA:39,e0,11,0
BRDA:43,0,0,1
BRDA:43,e0,1,0
BRDA:43,0,2,1
BRDA:43,e0,3,0
BRDA:44,0,0,1
BRDA:44,e0,1,0
BRDA:44,0,2,1
BRDA:44,e0,3,0
BRDA:45,0,0,1
BRDA:45,e0,1,0
BRDA:45,0,2,1
BRDA:45,e0,3,0
BRDA:46,0,0,1
BRDA:46,e0,1,0
BRDA:46,0,2,1
BRDA:46,e0,3,0
BRDA:47,0,0,1
BRDA:47,e0,1,0
BRDA:47,0,2,1
BRDA:47,e0,3,0
BRDA:48,0,0,1
BRDA:48,e0,1,0
BRDA:48,0,2,1
BRDA:48,e0,3,0
BRDA:49,0,0,1
BRDA:49,e0,1,0
BRDA:49,0,2,1
BRDA:49,e0,3,0
BRDA:50,0,0,1
BRDA:50,e0,1,0
BRDA:50,0,2,1
BRDA:50,e0,3,0
BRDA:52,0,0,1
BRDA:52,e0,1,0
BRDA:52,0,2,0
BRDA:52,0,3,1
BRDA:52,0,4,0
BRDA:52,e0,5,0
BRDA:52,0,6,0
BRDA:52,e0,7,0
BRDA:52,0,8,0
BRDA:52,e0,9,0
BRDA:53,0,0,1
BRDA:53,e0,1,0
BRDA:53,0,2,1
BRDA:53,e0,3,0
BRDA:53,0,4,0
BRDA:53,0,5,1
BRDA:53,0,6,0
BRDA:53,e0,7,0
BRDA:53,0,8,0
BRDA:53,e0,9,0
BRDA:53,0,10,0
BRDA:53,e0,11,0
BRDA:57,0,0,1
BRDA:57,e0,1,0
BRDA:57,0,2,0
BRDA:57,0,3,1
BRDA:57,0,4,0
BRDA:57,e0,5,0
BRDA:57,0,6,0
BRDA:57,e0,7,0
BRDA:57,0,8,0
BRDA:57,e0,9,0
BRDA:58,0,0,1
BRDA:58,e0,1,0
BRDA:58,0,2,1
BRDA:58,e0,3,0
BRDA:58,0,4,0
BRDA:58,0,5,1
BRDA:58,0,6,0
BRDA:58,e0,7,0
BRDA:58,0,8,0
BRDA:58,e0,9,0
BRDA:58,0,10,0
BRDA:58,e0,11,0
BRF:142
BRH:47
DA:15,4
DA:16,1
DA:17,1
DA:18,1
DA:19,1
DA:20,1
DA:21,1
DA:22,1
DA:23,1
DA:24,1
DA:25,1
DA:26,1
DA:28,1
DA:30,1
DA:31,1
DA:33,1
DA:34,1
DA:35,1
DA:36,1
DA:38,1
DA:39,1
DA:40,1
DA:42,4
DA:43,2
DA:44,2
DA:45,2
DA:46,2
DA:47,2
DA:48,2
DA:49,2
DA:50,2
DA:52,1
DA:53,1
DA:55,1
DA:57,1
DA:58,1
DA:59,1
DA:62,1
DA:63,1
DA:64,1
LF:40
LH:40
end_of_record
TN:
SF:/usr/include/c++/14/atomic
FN:838,838,_ZNSt6atomicIiEC2Ei
FNDA:20,_ZNSt6atomicIiEC2Ei
FNF:1
FNH:1
DA:838,20
LF:1
LH:1
end_of_record
TN:
SF:/usr/include/c++/14/bits/alloc_traits.h
FNF:0
FNH:0
DA:478,751
DA:513,30
DA:572,1383
DA:584,233
DA:718,0
LF:5
LH:4
end_of_record
TN:
SF:/usr/include/c++/14/bits/allocator.h
FNF:0
FNH:0
BRDA:189,0,0,0
BRDA:189,0,1,751
BRDA:191,0,0,-
BRDA:191,0,1,-
BRDA:203,0,0,0
BRDA:203,0,1,0
BRDA:203,0,2,0
BRDA:203,0,3,18
BRDA:203,1,0,0
BRDA:203,1,1,12
BRF:10
BRH:3
DA:161,156
DA:166,751
DA:182,389
DA:189,751
DA:191,0
DA:192,0
DA:193,0
DA:196,751
DA:203,30
DA:205,0
DA:206,0
DA:208,30
DA:215,0
LF:13
LH:7
end_of_record
TN:
SF:/usr/include/c++/14/bits/atomic_base.h
FN:358,358,_ZNSt13__atomic_baseIiEC2Ei
FNDA:20,_ZNSt13__atomic_baseIiEC2Ei
FNF:1
FNH:1
DA:358,20
DA:631,8
DA:641,31
LF:3
LH:3
end_of_record
TN:
SF:/usr/include/c++/14/bits/basic_string.h
FN:1076,1077,_ZNKSt7__cxx1112basic_stringIcSt11char_traitsIcESaIcEE4sizeEv
FN:1083,1084,_ZNKSt7__cxx1112basic_stringIcSt11char_traitsIcESaIcEE6lengthEv
FN:1089,1090,_ZNKSt7__cxx1112basic_stringIcSt11char_traitsIcESaIcEE8max_sizeEv
FN:1180,1184,_ZNKSt7__cxx1112basic_stringIcSt11char_traitsIcESaIcEE8capacityEv
FN:1231,1232,_ZNKSt7__cxx1112basic_stringIcSt11char_traitsIcESaIcEE5emptyEv
FN:129,142,_ZNSt7__cxx1112basic_stringIcSt11char_traitsIcESaIcEE11_S_allocateERS3_m
FN:1377,1378,_ZNSt7__cxx1112basic_stringIcSt11char_traitsIcESaIcEEpLERKS4_
FN:1387,1388,_ZNSt7__cxx1112basic_stringIcSt11char_traitsIcESaIcEEpLEPKc
FN:1435,1436,_ZNSt7__cxx1112basic_stringIcSt11char_traitsIcESaIcEE6appendERKS4_
FN:1466,1471,_ZNSt7__cxx1112basic_stringIcSt11char_traitsIcESaIcEE6appendEPKcm
FN:1480,1486,_ZNSt7__cxx1112basic_stringIcSt11char_traitsIcESaIcEE6appendEPKc
FN:1588,1621,_ZNSt7__cxx1112basic_stringIcSt11char_traitsIcESaIcEE6assignERKS4_
FN:1692,1697,_ZNSt7__cxx1112basic_stringIcSt11char_traitsIcESaIcEE6assignEPKc
FN:193,194,_ZNSt7__cxx1112basic_stringIcSt11char_traitsIcESaIcEE12_Alloc_hiderC2EPcRKS3_
FN:1939,1941,_ZNSt7__cxx1112basic_stringIcSt11char_traitsIcESaIcEE6insertEmRKS4_
FN:197,198,_ZNSt7__cxx1112basic_stringIcSt11char_traitsIcESaIcEE12_Alloc_hiderC2EPcOS3_
FN:2114,2122,_ZNSt7__cxx1112basic_stringIcSt11char_traitsIcESaIcEE5eraseEmm
FN:217,218,_ZNSt7__cxx1112basic_stringIcSt11char_traitsIcESaIcEE7_M_dataEPc
FN:222,223,_ZNSt7__cxx1112basic_stringIcSt11char_traitsIcESaIcEE9_M_lengthEm
FN:2249,2255,_ZNSt7__cxx1112basic_stringIcSt11char_traitsIcESaIcEE7replaceEmmPKcm
FN:227,228,_ZNKSt7__cxx1112basic_stringIcSt11char_traitsIcESaIcEE7_M_dataEv
FN:2300,2302,_ZNSt7__cxx1112basic_stringIcSt11char_traitsIcESaIcEE7replaceEmmmc
FN:232,239,_ZNSt7__cxx1112basic_stringIcSt11char_traitsIcESaIcEE13_M_local_dataEv
FN:243,250,_ZNKSt7__cxx1112basic_stringIcSt11char_traitsIcESaIcEE13_M_local_dataEv
FN:254,255,_ZNSt7__cxx1112basic_stringIcSt11char_traitsIcESaIcEE11_M_capacityEm
FN:259,263,_ZNSt7__cxx1112basic_stringIcSt11char_traitsIcESaIcEE13_M_set_lengthEm
FN:2640,2641,_ZNKSt7__cxx1112basic_stringIcSt11char_traitsIcESaIcEE5c_strEv
FN:2653,2654,_ZNKSt7__cxx1112basic_stringIcSt11char_traitsIcESaIcEE4dataEv
FN:267,276,_ZNKSt7__cxx1112basic_stringIcSt11char_traitsIcESaIcEE11_M_is_localEv
FN:2706,2708,_ZNKSt7__cxx1112basic_stringIcSt11char_traitsIcESaIcEE4findERKS4_m
FN:2740,2744,_ZNKSt7__cxx1112basic_stringIcSt11char_traitsIcESaIcEE4findEPKcm
FN:285,289,_ZNSt7__cxx1112basic_stringIcSt11char_traitsIcESaIcEE10_M_disposeEv
FN:2908,2913,_ZNKSt7__cxx1112basic_stringIcSt11char_traitsIcESaIcEE13find_first_ofEPKcm
FN:293,294,_ZNSt7__cxx1112basic_stringIcSt11char_traitsIcESaIcEE10_M_destroyEm
FN:3208,3210,_ZNKSt7__cxx1112basic_stringIcSt11char_traitsIcESaIcEE6substrEmm
FN:3228,3238,_ZNKSt7__cxx1112basic_stringIcSt11char_traitsIcESaIcEE7compareERKS4_
FN:341,342,_ZNSt7__cxx1112basic_stringIcSt11char_traitsIcESaIcEE16_M_get_allocatorEv
FN:3428,3439,_ZNKSt7__cxx1112basic_stringIcSt11char_traitsIcESaIcEE7compareEmmPKc
FN:346,347,_ZNKSt7__cxx1112basic_stringIcSt11char_traitsIcESaIcEE16_M_get_allocatorEv
FN:3696,3714,_ZStplIcSt11char_traitsIcESaIcEENSt7__cxx1112basic_stringIT_T0_T1_EEOS8_S9_
FN:3733,3735,_ZStplIcSt11char_traitsIcESaIcEENSt7__cxx1112basic_stringIT_T0_T1_EEOS8_PKS5_
FN:3755,3761,_ZSteqIcSt11char_traitsIcESaIcEEbRKNSt7__cxx1112basic_stringIT_T0_T1_EESA_
FN:3772,3777,_ZSteqIcSt11char_traitsIcESaIcEEbRKNSt7__cxx1112basic_stringIT_T0_T1_EEPKS5_
FN:3790,3793,_ZStssIcSt11char_traitsIcESaIcEEDTcl21__char_traits_cmp_catIT0_ELi0EEERKNSt7__cxx1112basic_stringIT_S3_T1_EESB_
FN:391,398,_ZNKSt7__cxx1112basic_stringIcSt11char_traitsIcESaIcEE8_M_checkEmPKc
FN:402,406,_ZNKSt7__cxx1112basic_stringIcSt11char_traitsIcESaIcEE15_M_check_lengthEmmPKc
FN:412,416,_ZNKSt7__cxx1112basic_stringIcSt11char_traitsIcESaIcEE8_M_limitEmm
FN:420,424,_ZNKSt7__cxx1112basic_stringIcSt11char_traitsIcESaIcEE11_M_disjunctEPKc
FN:430,436,_ZNSt7__cxx1112basic_stringIcSt11char_traitsIcESaIcEE7_S_copyEPcPKcm
FN:440,446,_ZNSt7__cxx1112basic_stringIcSt11char_traitsIcESaIcEE7_S_moveEPcPKcm
FN:450,456,_ZNSt7__cxx1112basic_stringIcSt11char_traitsIcESaIcEE9_S_assignEPcmc
FN:482,483,_ZNSt7__cxx1112basic_stringIcSt11char_traitsIcESaIcEE13_S_copy_charsEPcS5_S5_
FN:487,489,_ZNSt7__cxx1112basic_stringIcSt11char_traitsIcESaIcEE13_S_copy_charsEPcPKcS7_
FN:493,503,_ZNSt7__cxx1112basic_stringIcSt11char_traitsIcESaIcEE10_S_compareEmm
FN:527,533,_ZNSt7__cxx1112basic_stringIcSt11char_traitsIcESaIcEEC2Ev
FN:552,558,_ZNSt7__cxx1112basic_stringIcSt11char_traitsIcESaIcEEC2ERKS4_
FN:586,594,_ZNSt7__cxx1112basic_stringIcSt11char_traitsIcESaIcEEC2ERKS4_mm
FN:646,655,_ZNSt7__cxx1112basic_stringIcSt11char_traitsIcESaIcEEC2IS3_EEPKcRKS3_
FN:682,703,_ZNSt7__cxx1112basic_stringIcSt11char_traitsIcESaIcEEC2EOS4_
FN:808,809,_ZNSt7__cxx1112basic_stringIcSt11char_traitsIcESaIcEED2Ev
FN:817,820,_ZNSt7__cxx1112basic_stringIcSt11char_traitsIcESaIcEEaSERKS4_
FN:828,829,_ZNSt7__cxx1112basic_stringIcSt11char_traitsIcESaIcEEaSEPKc
FN:960,961,_ZNSt7__cxx1112basic_stringIcSt11char_traitsIcESaIcEE5beginEv
FN:969,970,_ZNKSt7__cxx1112basic_stringIcSt11char_traitsIcESaIcEE5beginEv
FN:978,979,_ZNSt7__cxx1112basic_stringIcSt11char_traitsIcESaIcEE3endEv
FN:987,988,_ZNKSt7__cxx1112basic_stringIcSt11char_traitsIcESaIcEE3endEv
FNDA:1259,_ZNKSt7__cxx1112basic_stringIcSt11char_traitsIcESaIcEE4sizeEv
FNDA:878,_ZNKSt7__cxx1112basic_stringIcSt11char_traitsIcESaIcEE6lengthEv
FNDA:1383,_ZNKSt7__cxx1112basic_stringIcSt11char_traitsIcESaIcEE8max_sizeEv
FNDA:860,_ZNKSt7__cxx1112basic_stringIcSt11char_traitsIcESaIcEE8capacityEv
FNDA:0,_ZNKSt7__cxx1112basic_stringIcSt11char_traitsIcESaIcEE5emptyEv
FNDA:751,_ZNSt7__cxx1112basic_stringIcSt11char_traitsIcESaIcEE11_S_allocateERS3_m
FNDA:6,_ZNSt7__cxx1112basic_stringIcSt11char_traitsIcESaIcEEpLERKS4_
FNDA:5,_ZNSt7__cxx1112basic_stringIcSt11char_traitsIcESaIcEEpLEPKc
FNDA:13,_ZNSt7__cxx1112basic_stringIcSt11char_traitsIcESaIcEE6appendERKS4_
FNDA:13,_ZNSt7__cxx1112basic_stringIcSt11char_traitsIcESaIcEE6appendEPKcm
FNDA:6,_ZNSt7__cxx1112basic_stringIcSt11char_traitsIcESaIcEE6appendEPKc
FNDA:38,_ZNSt7__cxx1112basic_stringIcSt11char_traitsIcESaIcEE6assignERKS4_
FNDA:0,_ZNSt7__cxx1112basic_stringIcSt11char_traitsIcESaIcEE6assignEPKc
FNDA:152,_ZNSt7__cxx1112basic_stringIcSt11char_traitsIcESaIcEE12_Alloc_hiderC2EPcRKS3_
FNDA:0,_ZNSt7__cxx1112basic_stringIcSt11char_traitsIcESaIcEE6insertEmRKS4_
FNDA:366,_ZNSt7__cxx1112basic_stringIcSt11char_traitsIcESaIcEE12_Alloc_hiderC2EPcOS3_
FNDA:0,_ZNSt7__cxx1112basic_stringIcSt11char_traitsIcESaIcEE5eraseEmm
FNDA:304,_ZNSt7__cxx1112basic_stringIcSt11char_traitsIcESaIcEE7_M_dataEPc
FNDA:1275,_ZNSt7__cxx1112basic_stringIcSt11char_traitsIcESaIcEE9_M_lengthEm
FNDA:0,_ZNSt7__cxx1112basic_stringIcSt11char_traitsIcESaIcEE7replaceEmmPKcm
FNDA:4807,_ZNKSt7__cxx1112basic_stringIcSt11char_traitsIcESaIcEE7_M_dataEv
FNDA:0,_ZNSt7__cxx1112basic_stringIcSt11char_traitsIcESaIcEE7replaceEmmmc
FNDA:594,_ZNSt7__cxx1112basic_stringIcSt11char_traitsIcESaIcEE13_M_local_dataEv
FNDA:1682,_ZNKSt7__cxx1112basic_stringIcSt11char_traitsIcESaIcEE13_M_local_dataEv
FNDA:228,_ZNSt7__cxx1112basic_stringIcSt11char_traitsIcESaIcEE11_M_capacityEm
FNDA:1199,_ZNSt7__cxx1112basic_stringIcSt11char_traitsIcESaIcEE13_M_set_lengthEm
FNDA:12,_ZNKSt7__cxx1112basic_stringIcSt11char_traitsIcESaIcEE5c_strEv
FNDA:78,_ZNKSt7__cxx1112basic_stringIcSt11char_traitsIcESaIcEE4dataEv
FNDA:1682,_ZNKSt7__cxx1112basic_stringIcSt11char_traitsIcESaIcEE11_M_is_localEv
FNDA:5,_ZNKSt7__cxx1112basic_stringIcSt11char_traitsIcESaIcEE4findERKS4_m
FNDA:0,_ZNKSt7__cxx1112basic_stringIcSt11char_traitsIcESaIcEE4findEPKcm
FNDA:746,_ZNSt7__cxx1112basic_stringIcSt11char_traitsIcESaIcEE10_M_disposeEv
FNDA:0,_ZNKSt7__cxx1112basic_stringIcSt11char_traitsIcESaIcEE13find_first_ofEPKcm
FNDA:30,_ZNSt7__cxx1112basic_stringIcSt11char_traitsIcESaIcEE10_M_destroyEm
FNDA:2,_ZNKSt7__cxx1112basic_stringIcSt11char_traitsIcESaIcEE6substrEmm
FNDA:3,_ZNKSt7__cxx1112basic_stringIcSt11char_traitsIcESaIcEE7compareERKS4_
FNDA:857,_ZNSt7__cxx1112basic_stringIcSt11char_traitsIcESaIcEE16_M_get_allocatorEv
FNDA:0,_ZNKSt7__cxx1112basic_stringIcSt11char_traitsIcESaIcEE7compareEmmPKc
FNDA:1616,_ZNKSt7__cxx1112basic_stringIcSt11char_traitsIcESaIcEE16_M_get_allocatorEv
FNDA:7,_ZStplIcSt11char_traitsIcESaIcEENSt7__cxx1112basic_stringIT_T0_T1_EEOS8_S9_
FNDA:1,_ZStplIcSt11char_traitsIcESaIcEENSt7__cxx1112basic_stringIT_T0_T1_EEOS8_PKS5_
FNDA:46,_ZSteqIcSt11char_traitsIcESaIcEEbRKNSt7__cxx1112basic_stringIT_T0_T1_EESA_
FNDA:5,_ZSteqIcSt11char_traitsIcESaIcEEbRKNSt7__cxx1112basic_stringIT_T0_T1_EEPKS5_
FNDA:3,_ZStssIcSt11char_traitsIcESaIcEEDTcl21__char_traits_cmp_catIT0_ELi0EEERKNSt7__cxx1112basic_stringIT_S3_T1_EESB_
FNDA:4,_ZNKSt7__cxx1112basic_stringIcSt11char_traitsIcESaIcEE8_M_checkEmPKc
FNDA:355,_ZNKSt7__cxx1112basic_stringIcSt11char_traitsIcESaIcEE15_M_check_lengthEmmPKc
FNDA:2,_ZNKSt7__cxx1112basic_stringIcSt11char_traitsIcESaIcEE8_M_limitEmm
FNDA:232,_ZNKSt7__cxx1112basic_stringIcSt11char_traitsIcESaIcEE11_M_disjunctEPKc
FNDA:1069,_ZNSt7__cxx1112basic_stringIcSt11char_traitsIcESaIcEE7_S_copyEPcPKcm
FNDA:0,_ZNSt7__cxx1112basic_stringIcSt11char_traitsIcESaIcEE7_S_moveEPcPKcm
FNDA:0,_ZNSt7__cxx1112basic_stringIcSt11char_traitsIcESaIcEE9_S_assignEPcmc
FNDA:233,_ZNSt7__cxx1112basic_stringIcSt11char_traitsIcESaIcEE13_S_copy_charsEPcS5_S5_
FNDA:154,_ZNSt7__cxx1112basic_stringIcSt11char_traitsIcESaIcEE13_S_copy_charsEPcPKcS7_
FNDA:0,_ZNSt7__cxx1112basic_stringIcSt11char_traitsIcESaIcEE10_S_compareEmm
FNDA:55,_ZNSt7__cxx1112basic_stringIcSt11char_traitsIcESaIcEEC2Ev
FNDA:233,_ZNSt7__cxx1112basic_stringIcSt11char_traitsIcESaIcEEC2ERKS4_
FNDA:2,_ZNSt7__cxx1112basic_stringIcSt11char_traitsIcESaIcEEC2ERKS4_mm
FNDA:152,_ZNSt7__cxx1112basic_stringIcSt11char_traitsIcESaIcEEC2IS3_EEPKcRKS3_
FNDA:76,_ZNSt7__cxx1112basic_stringIcSt11char_traitsIcESaIcEEC2EOS4_
FNDA:529,_ZNSt7__cxx1112basic_stringIcSt11char_traitsIcESaIcEED2Ev
FNDA:38,_ZNSt7__cxx1112basic_stringIcSt11char_traitsIcESaIcEEaSERKS4_
FNDA:0,_ZNSt7__cxx1112basic_stringIcSt11char_traitsIcESaIcEEaSEPKc
FNDA:12,_ZNSt7__cxx1112basic_stringIcSt11char_traitsIcESaIcEE5beginEv
FNDA:14,_ZNKSt7__cxx1112basic_stringIcSt11char_traitsIcESaIcEE5beginEv
FNDA:6,_ZNSt7__cxx1112basic_stringIcSt11char_traitsIcESaIcEE3endEv
FNDA:14,_ZNKSt7__cxx1112basic_stringIcSt11char_traitsIcESaIcEE3endEv
FNF:66
FNH:53
BRDA:269,0,0,1490
BRDA:269,0,1,192
BRDA:271,0,0,0
BRDA:271,0,1,1490
BRDA:287,0,0,30
BRDA:287,0,1,716
BRDA:356,0,0,0
BRDA:356,0,1,0
BRDA:356,0,2,0
BRDA:356,0,3,129
BRDA:356,0,4,0
BRDA:356,0,5,77
BRDA:356,0,6,0
BRDA:356,0,7,23
BRDA:356,0,8,0
BRDA:356,0,9,34
BRDA:356,0,10,0
BRDA:356,0,11,54
BRDA:356,1,0,0
BRDA:356,1,1,18
BRDA:356,1,2,0
BRDA:356,1,3,10
BRDA:356,1,4,0
BRDA:356,1,5,7
BRDA:356,1,6,0
BRDA:356,1,7,9
BRDA:356,2,0,0
BRDA:356,2,1,78
BRDA:356,2,2,0
BRDA:356,2,3,44
BRDA:356,2,4,0
BRDA:356,2,5,20
BRDA:356,2,6,0
BRDA:356,2,7,33
BRDA:356,2,8,0
BRDA:356,2,9,1
BRDA:357,0,0,-
BRDA:357,0,1,-
BRDA:357,0,2,-
BRDA:357,0,3,-
BRDA:357,0,4,-
BRDA:357,0,5,-
BRDA:357,0,6,-
BRDA:357,0,7,-
BRDA:357,0,8,-
BRDA:357,0,9,-
BRDA:357,0,10,-
BRDA:357,0,11,-
BRDA:357,1,0,-
BRDA:357,1,1,-
BRDA:357,1,2,-
BRDA:357,1,3,-
BRDA:357,1,4,-
BRDA:357,1,5,-
BRDA:357,1,6,-
BRDA:357,1,7,-
BRDA:357,2,0,-
BRDA:357,2,1,-
BRDA:357,2,2,-
BRDA:357,2,3,-
BRDA:357,2,4,-
BRDA:357,2,5,-
BRDA:357,2,6,-
BRDA:357,2,7,-
BRDA:357,2,8,-
BRDA:357,2,9,-
BRDA:393,0,0,0
BRDA:393,0,1,4
BRDA:404,0,0,0
BRDA:404,0,1,355
BRDA:415,0,0,1
BRDA:415,0,1,1
BRDA:423,0,0,2
BRDA:423,0,1,230
BRDA:423,0,2,2
BRDA:423,0,3,0
BRDA:432,0,0,154
BRDA:432,0,1,915
BRDA:442,0,0,-
BRDA:442,0,1,-
BRDA:452,0,0,-
BRDA:452,0,1,-
BRDA:497,0,0,-
BRDA:497,0,1,-
BRDA:499,0,0,-
BRDA:499,0,1,-
BRDA:556,0,0,233
BRDA:556,e0,1,0
BRDA:591,0,0,2
BRDA:591,e0,1,0
BRDA:592,0,0,2
BRDA:592,e0,1,0
BRDA:650,0,0,0
BRDA:650,0,1,152
BRDA:653,0,0,152
BRDA:653,e0,1,0
BRDA:654,0,0,152
BRDA:654,e0,1,0
BRDA:685,0,0,50
BRDA:685,0,1,26
BRDA:1182,0,0,724
BRDA:1182,0,1,136
BRDA:1591,0,0,0
BRDA:1591,0,1,38
BRDA:1593,0,0,-
BRDA:1593,0,1,-
BRDA:1594,0,0,-
BRDA:1594,0,1,-
BRDA:1594,0,2,-
BRDA:1594,0,3,-
BRDA:1594,0,4,-
BRDA:1594,0,5,-
BRDA:1598,0,0,-
BRDA:1598,0,1,-
BRDA:1609,0,0,-
BRDA:1609,e0,1,-
BRDA:1613,0,0,-
BRDA:1613,e0,1,-
BRDA:2117,0,0,-
BRDA:2117,0,1,-
BRDA:2119,0,0,-
BRDA:2119,0,1,-
BRDA:3235,0,0,0
BRDA:3235,0,1,3
BRDA:3431,0,0,-
BRDA:3431,e0,1,-
BRDA:3433,0,0,-
BRDA:3433,e0,1,-
BRDA:3436,0,0,-
BRDA:3436,0,1,-
BRDA:3706,0,0,7
BRDA:3706,0,1,0
BRDA:3710,0,0,1
BRDA:3710,0,1,6
BRDA:3710,0,2,0
BRDA:3710,0,3,1
BRDA:3710,0,4,0
BRDA:3710,0,5,7
BRDA:3760,0,0,30
BRDA:3760,0,1,16
BRDA:3760,0,2,19
BRDA:3760,0,3,11
BRDA:3776,0,0,5
BRDA:3776,0,1,0
BRDA:3776,0,2,5
BRDA:3776,0,3,0
BRF:146
BRH:51
DA:129,751
DA:131,751
DA:141,751
DA:193,152
DA:194,152
DA:197,366
DA:198,366
DA:217,304
DA:218,304
DA:222,1275
DA:223,1275
DA:227,4807
DA:228,4807
DA:232,594
DA:235,594
DA:243,1682
DA:246,1682
DA:254,228
DA:255,228
DA:259,1199
DA:261,1199
DA:262,1199
DA:263,1199
DA:267,1682
DA:269,1682
DA:271,1490
DA:272,0
DA:273,1490
DA:275,192
DA:285,746
DA:287,746
DA:288,30
DA:289,746
DA:293,30
DA:294,30
DA:341,857
DA:342,857
DA:346,1616
DA:347,1616
DA:356,537
DA:357,0
DA:358,0
DA:360,537
DA:370,76
DA:391,4
DA:393,4
DA:394,0
DA:397,4
DA:402,355
DA:404,355
DA:405,0
DA:406,355
DA:412,2
DA:414,2
DA:415,2
DA:420,232
DA:422,232
DA:423,232
DA:430,1069
DA:432,1069
DA:433,154
DA:435,915
DA:436,1069
DA:440,0
DA:442,0
DA:443,0
DA:445,0
DA:446,0
DA:450,0
DA:452,0
DA:453,0
DA:455,0
DA:456,0
DA:482,233
DA:483,233
DA:487,154
DA:489,154
DA:493,0
DA:495,0
DA:497,0
DA:498,0
DA:499,0
DA:500,0
DA:502,0
DA:527,55
DA:529,165
DA:532,55
DA:533,55
DA:552,233
DA:553,233
DA:554,233
DA:556,233
DA:558,233
DA:586,2
DA:588,4
DA:590,2
DA:591,2
DA:592,2
DA:594,2
DA:646,152
DA:647,152
DA:650,152
DA:651,0
DA:653,152
DA:654,152
DA:655,152
DA:682,76
DA:683,76
DA:685,76
DA:688,50
DA:689,50
DA:693,26
DA:694,26
DA:700,76
DA:701,76
DA:702,76
DA:703,76
DA:808,529
DA:809,529
DA:817,38
DA:819,38
DA:828,0
DA:829,0
DA:960,12
DA:961,12
DA:969,14
DA:970,14
DA:978,6
DA:979,6
DA:987,14
DA:988,14
DA:1076,1259
DA:1077,1259
DA:1083,878
DA:1084,878
DA:1089,1383
DA:1090,2766
DA:1180,860
DA:1182,860
DA:1183,860
DA:1231,0
DA:1232,0
DA:1377,6
DA:1378,6
DA:1387,5
DA:1388,5
DA:1435,13
DA:1436,13
DA:1466,13
DA:1469,13
DA:1470,13
DA:1480,6
DA:1483,6
DA:1484,6
DA:1485,6
DA:1588,38
DA:1591,38
DA:1593,0
DA:1594,0
DA:1598,0
DA:1600,0
DA:1601,0
DA:1602,0
DA:1606,0
DA:1607,0
DA:1609,0
DA:1610,0
DA:1611,0
DA:1612,0
DA:1613,0
DA:1616,0
DA:1619,38
DA:1620,38
DA:1692,0
DA:1695,0
DA:1696,0
DA:1939,0
DA:1940,0
DA:1941,0
DA:2114,0
DA:2116,0
DA:2117,0
DA:2118,0
DA:2119,0
DA:2120,0
DA:2121,0
DA:2249,0
DA:2253,0
DA:2254,0
DA:2300,0
DA:2301,0
DA:2302,0
DA:2640,12
DA:2641,12
DA:2653,78
DA:2654,78
DA:2706,5
DA:2708,5
DA:2740,0
DA:2743,0
DA:2908,0
DA:2912,0
DA:3208,2
DA:3210,2
DA:3228,3
DA:3230,3
DA:3231,3
DA:3232,3
DA:3234,3
DA:3235,3
DA:3236,0
DA:3237,3
DA:3428,0
DA:3431,0
DA:3432,0
DA:3433,0
DA:3434,0
DA:3435,0
DA:3436,0
DA:3437,0
DA:3438,0
DA:3696,7
DA:3701,7
DA:3703,7
DA:3706,7
DA:3709,7
DA:3710,7
DA:3711,0
DA:3713,7
DA:3733,1
DA:3735,1
DA:3755,46
DA:3759,46
DA:3760,46
DA:3772,5
DA:3775,5
DA:3776,5
DA:3790,3
DA:3793,3
LF:239
LH:164
end_of_record
TN:
SF:/usr/include/c++/14/bits/basic_string.tcc
FN:138,160,_ZNSt7__cxx1112basic_stringIcSt11char_traitsIcESaIcEE9_M_createERmm
FN:221,252,_ZNSt7__cxx1112basic_stringIcSt11char_traitsIcESaIcEE12_M_constructIPKcEEvT_S8_St20forward_iterator_tag
FN:221,252,_ZNSt7__cxx1112basic_stringIcSt11char_traitsIcESaIcEE12_M_constructIPcEEvT_S7_St20forward_iterator_tag
FN:239,239,_ZZNSt7__cxx1112basic_stringIcSt11char_traitsIcESaIcEE12_M_constructIPKcEEvT_S8_St20forward_iterator_tagEN6_GuardC2EPS4_
FN:239,239,_ZZNSt7__cxx1112basic_stringIcSt11char_traitsIcESaIcEE12_M_constructIPcEEvT_S7_St20forward_iterator_tagEN6_GuardC2EPS4_
FN:242,242,_ZZNSt7__cxx1112basic_stringIcSt11char_traitsIcESaIcEE12_M_constructIPKcEEvT_S8_St20forward_iterator_tagEN6_GuardD2Ev
FN:242,242,_ZZNSt7__cxx1112basic_stringIcSt11char_traitsIcESaIcEE12_M_constructIPcEEvT_S7_St20forward_iterator_tagEN6_GuardD2Ev
FN:277,299,_ZNSt7__cxx1112basic_stringIcSt11char_traitsIcESaIcEE9_M_assignERKS4_
FN:325,345,_ZNSt7__cxx1112basic_stringIcSt11char_traitsIcESaIcEE9_M_mutateEmmPKcm
FN:350,359,_ZNSt7__cxx1112basic_stringIcSt11char_traitsIcESaIcEE8_M_eraseEmm
FN:413,428,_ZNSt7__cxx1112basic_stringIcSt11char_traitsIcESaIcEE9_M_appendEPKcm
FN:450,475,_ZNSt7__cxx1112basic_stringIcSt11char_traitsIcESaIcEE14_M_replace_auxEmmmc
FN:511,552,_ZNSt7__cxx1112basic_stringIcSt11char_traitsIcESaIcEE10_M_replaceEmmPKcm
FN:626,658,_ZNKSt7__cxx1112basic_stringIcSt11char_traitsIcESaIcEE4findEPKcmm
FN:663,677,_ZNKSt7__cxx1112basic_stringIcSt11char_traitsIcESaIcEE4findEcm
FN:723,735,_ZNKSt7__cxx1112basic_stringIcSt11char_traitsIcESaIcEE13find_first_ofEPKcmm
FNDA:751,_ZNSt7__cxx1112basic_stringIcSt11char_traitsIcESaIcEE9_M_createERmm
FNDA:154,_ZNSt7__cxx1112basic_stringIcSt11char_traitsIcESaIcEE12_M_constructIPKcEEvT_S8_St20forward_iterator_tag
FNDA:233,_ZNSt7__cxx1112basic_stringIcSt11char_traitsIcESaIcEE12_M_constructIPcEEvT_S7_St20forward_iterator_tag
FNDA:154,_ZZNSt7__cxx1112basic_stringIcSt11char_traitsIcESaIcEE12_M_constructIPKcEEvT_S8_St20forward_iterator_tagEN6_GuardC2EPS4_
FNDA:233,_ZZNSt7__cxx1112basic_stringIcSt11char_traitsIcESaIcEE12_M_constructIPcEEvT_S7_St20forward_iterator_tagEN6_GuardC2EPS4_
FNDA:154,_ZZNSt7__cxx1112basic_stringIcSt11char_traitsIcESaIcEE12_M_constructIPKcEEvT_S8_St20forward_iterator_tagEN6_GuardD2Ev
FNDA:233,_ZZNSt7__cxx1112basic_stringIcSt11char_traitsIcESaIcEE12_M_constructIPcEEvT_S7_St20forward_iterator_tagEN6_GuardD2Ev
FNDA:170,_ZNSt7__cxx1112basic_stringIcSt11char_traitsIcESaIcEE9_M_assignERKS4_
FNDA:171,_ZNSt7__cxx1112basic_stringIcSt11char_traitsIcESaIcEE9_M_mutateEmmPKcm
FNDA:0,_ZNSt7__cxx1112basic_stringIcSt11char_traitsIcESaIcEE8_M_eraseEmm
FNDA:175,_ZNSt7__cxx1112basic_stringIcSt11char_traitsIcESaIcEE9_M_appendEPKcm
FNDA:0,_ZNSt7__cxx1112basic_stringIcSt11char_traitsIcESaIcEE14_M_replace_auxEmmmc
FNDA:336,_ZNSt7__cxx1112basic_stringIcSt11char_traitsIcESaIcEE10_M_replaceEmmPKcm
FNDA:5,_ZNKSt7__cxx1112basic_stringIcSt11char_traitsIcESaIcEE4findEPKcmm
FNDA:14,_ZNKSt7__cxx1112basic_stringIcSt11char_traitsIcESaIcEE4findEcm
FNDA:0,_ZNKSt7__cxx1112basic_stringIcSt11char_traitsIcESaIcEE13find_first_ofEPKcmm
FNF:16
FNH:13
BRDA:143,0,0,0
BRDA:143,0,1,751
BRDA:149,0,0,751
BRDA:149,0,1,0
BRDA:149,0,2,277
BRDA:149,0,3,474
BRDA:153,0,0,0
BRDA:153,0,1,277
BRDA:227,0,0,31
BRDA:227,0,1,356
BRDA:229,0,0,31
BRDA:229,e0,1,0
BRDA:242,0,0,0
BRDA:242,0,1,387
BRDA:251,0,0,387
BRDA:251,e0,1,0
BRDA:280,0,0,170
BRDA:280,0,1,0
BRDA:285,0,0,0
BRDA:285,0,1,170
BRDA:288,0,0,-
BRDA:288,e0,1,-
BRDA:289,0,0,-
BRDA:289,e0,1,-
BRDA:294,0,0,104
BRDA:294,0,1,66
BRDA:332,0,0,171
BRDA:332,e0,1,0
BRDA:334,0,0,15
BRDA:334,0,1,156
BRDA:335,0,0,15
BRDA:335,e0,1,0
BRDA:336,0,0,171
BRDA:336,0,1,0
BRDA:336,0,2,171
BRDA:336,0,3,0
BRDA:337,0,0,171
BRDA:337,e0,1,0
BRDA:338,0,0,0
BRDA:338,0,1,171
BRDA:340,0,0,-
BRDA:340,e0,1,-
BRDA:342,0,0,171
BRDA:342,e0,1,0
BRDA:355,0,0,-
BRDA:355,0,1,-
BRDA:355,0,2,-
BRDA:355,0,3,-
BRDA:418,0,0,160
BRDA:418,0,1,15
BRDA:420,0,0,160
BRDA:420,0,1,0
BRDA:459,0,0,-
BRDA:459,0,1,-
BRDA:464,0,0,-
BRDA:464,0,1,-
BRDA:464,0,2,-
BRDA:464,0,3,-
BRDA:470,0,0,-
BRDA:470,0,1,-
BRDA:520,0,0,232
BRDA:520,0,1,104
BRDA:526,0,0,0
BRDA:526,0,1,232
BRDA:537,0,0,232
BRDA:537,0,1,0
BRDA:539,0,0,0
BRDA:539,0,1,232
BRDA:539,0,2,0
BRDA:539,0,3,0
BRDA:541,0,0,232
BRDA:541,0,1,0
BRDA:633,0,0,0
BRDA:633,0,1,5
BRDA:634,0,0,-
BRDA:634,0,1,-
BRDA:635,0,0,0
BRDA:635,0,1,5
BRDA:644,0,0,6
BRDA:644,0,1,0
BRDA:648,0,0,1
BRDA:648,0,1,5
BRDA:653,0,0,4
BRDA:653,0,1,1
BRDA:668,0,0,14
BRDA:668,0,1,0
BRDA:673,0,0,4
BRDA:673,0,1,10
BRDA:728,0,0,-
BRDA:728,0,1,-
BRDA:728,0,2,-
BRDA:728,0,3,-
BRDA:728,0,4,-
BRDA:728,0,5,-
BRDA:731,0,0,-
BRDA:731,0,1,-
BRF:96
BRH:42
DA:138,751
DA:143,751
DA:144,0
DA:149,751
DA:151,277
DA:153,277
DA:154,0
DA:159,751
DA:221,387
DA:225,387
DA:227,387
DA:229,31
DA:230,31
DA:239,387
DA:242,387
DA:245,387
DA:247,387
DA:249,387
DA:251,387
DA:252,387
DA:277,170
DA:280,170
DA:282,170
DA:283,170
DA:285,170
DA:287,0
DA:288,0
DA:289,0
DA:290,0
DA:291,0
DA:294,170
DA:295,104
DA:297,170
DA:299,170
DA:325,171
DA:329,171
DA:331,171
DA:332,171
DA:334,171
DA:335,15
DA:336,171
DA:337,171
DA:338,171
DA:339,0
DA:340,0
DA:342,171
DA:343,171
DA:344,171
DA:345,171
DA:350,0
DA:353,0
DA:355,0
DA:356,0
DA:358,0
DA:359,0
DA:413,175
DA:416,175
DA:418,175
DA:420,160
DA:421,160
DA:424,15
DA:426,175
DA:427,175
DA:450,0
DA:454,0
DA:456,0
DA:457,0
DA:459,0
DA:461,0
DA:463,0
DA:464,0
DA:465,0
DA:468,0
DA:470,0
DA:471,0
DA:473,0
DA:474,0
DA:511,336
DA:515,336
DA:517,336
DA:518,336
DA:520,336
DA:522,232
DA:524,232
DA:526,232
DA:528,0
DA:529,0
DA:530,0
DA:531,0
DA:532,0
DA:533,0
DA:537,232
DA:539,232
DA:540,0
DA:541,232
DA:542,232
DA:545,0
DA:548,104
DA:550,336
DA:551,336
DA:626,5
DA:631,5
DA:633,5
DA:634,0
DA:635,5
DA:636,0
DA:638,5
DA:639,5
DA:640,5
DA:641,5
DA:642,5
DA:644,6
DA:647,6
DA:648,6
DA:649,1
DA:653,5
DA:654,4
DA:655,1
DA:657,0
DA:663,14
DA:666,14
DA:667,14
DA:668,14
DA:670,14
DA:671,14
DA:672,14
DA:673,14
DA:674,4
DA:676,14
DA:723,0
DA:728,0
DA:730,0
DA:731,0
DA:732,0
DA:734,0
LF:135
LH:89
end_of_record
TN:
SF:/usr/include/c++/14/bits/char_traits.h
FN:136,137,_ZN9__gnu_cxx11char_traitsIcE2eqERKcS3_
FN:199,206,_ZN9__gnu_cxx11char_traitsIcE6lengthEPKc
FN:210,217,_ZN9__gnu_cxx11char_traitsIcE4findEPKcmRS2_
FN:222,248,_ZN9__gnu_cxx11char_traitsIcE4moveEPcPKcm
FN:253,268,_ZN9__gnu_cxx11char_traitsIcE4copyEPcPKcm
FN:273,300,_ZN9__gnu_cxx11char_traitsIcE6assignEPcmc
FN:343,351,_ZNSt11char_traitsIcE6assignERcRKc
FN:358,363,_ZNSt11char_traitsIcE2ltERKcS2_
FN:366,382,_ZNSt11char_traitsIcE7compareEPKcS2_m
FN:385,392,_ZNSt11char_traitsIcE6lengthEPKc
FN:395,404,_ZNSt11char_traitsIcE4findEPKcmRS1_
FN:407,416,_ZNSt11char_traitsIcE4moveEPcPKcm
FN:419,428,_ZNSt11char_traitsIcE4copyEPcPKcm
FN:431,440,_ZNSt11char_traitsIcE6assignEPcmc
FN:996,1006,_ZNSt8__detail21__char_traits_cmp_catISt11char_traitsIcEEEDai
FNDA:0,_ZN9__gnu_cxx11char_traitsIcE2eqERKcS3_
FNDA:0,_ZN9__gnu_cxx11char_traitsIcE6lengthEPKc
FNDA:0,_ZN9__gnu_cxx11char_traitsIcE4findEPKcmRS2_
FNDA:0,_ZN9__gnu_cxx11char_traitsIcE4moveEPcPKcm
FNDA:0,_ZN9__gnu_cxx11char_traitsIcE4copyEPcPKcm
FNDA:0,_ZN9__gnu_cxx11char_traitsIcE6assignEPcmc
FNDA:1353,_ZNSt11char_traitsIcE6assignERcRKc
FNDA:0,_ZNSt11char_traitsIcE2ltERKcS2_
FNDA:43,_ZNSt11char_traitsIcE7compareEPKcS2_m
FNDA:163,_ZNSt11char_traitsIcE6lengthEPKc
FNDA:20,_ZNSt11char_traitsIcE4findEPKcmRS1_
FNDA:0,_ZNSt11char_traitsIcE4moveEPcPKcm
FNDA:965,_ZNSt11char_traitsIcE4copyEPcPKcm
FNDA:0,_ZNSt11char_traitsIcE6assignEPcmc
FNDA:3,_ZNSt8__detail21__char_traits_cmp_catISt11char_traitsIcEEEDai
FNF:15
FNH:6
BRDA:203,0,0,-
BRDA:203,0,1,-
BRDA:213,0,0,-
BRDA:213,0,1,-
BRDA:214,0,0,-
BRDA:214,0,1,-
BRDA:225,0,0,-
BRDA:225,0,1,-
BRDA:228,0,0,-
BRDA:228,0,1,-
BRDA:256,0,0,-
BRDA:256,0,1,-
BRDA:259,0,0,-
BRDA:259,0,1,-
BRDA:261,0,0,-
BRDA:261,0,1,-
BRDA:277,0,0,-
BRDA:277,0,1,-
BRDA:279,0,0,-
BRDA:279,0,1,-
BRDA:287,0,0,-
BRDA:287,0,1,-
BRDA:346,0,0,0
BRDA:346,0,1,1353
BRDA:368,0,0,0
BRDA:368,0,1,43
BRDA:371,0,0,0
BRDA:371,0,1,43
BRDA:373,0,0,-
BRDA:373,0,1,-
BRDA:374,0,0,-
BRDA:374,0,1,-
BRDA:376,0,0,-
BRDA:376,0,1,-
BRDA:388,0,0,0
BRDA:388,0,1,163
BRDA:397,0,0,0
BRDA:397,0,1,20
BRDA:400,0,0,0
BRDA:400,0,1,20
BRDA:409,0,0,-
BRDA:409,0,1,-
BRDA:412,0,0,-
BRDA:412,0,1,-
BRDA:421,0,0,0
BRDA:421,0,1,965
BRDA:424,0,0,0
BRDA:424,0,1,965
BRDA:433,0,0,-
BRDA:433,0,1,-
BRDA:436,0,0,-
BRDA:436,0,1,-
BRDA:1002,0,0,3
BRDA:1002,0,1,0
BRDA:1002,0,2,2
BRDA:1002,0,3,1
BRF:56
BRH:11
DA:136,0
DA:137,0
DA:199,0
DA:202,0
DA:203,0
DA:204,0
DA:205,0
DA:210,0
DA:213,0
DA:214,0
DA:215,0
DA:216,0
DA:222,0
DA:225,0
DA:226,0
DA:228,0
DA:242,0
DA:243,0
DA:246,0
DA:247,0
DA:253,0
DA:256,0
DA:257,0
DA:259,0
DA:261,0
DA:262,0
DA:263,0
DA:266,0
DA:267,0
DA:273,0
DA:277,0
DA:279,0
DA:280,0
DA:281,0
DA:287,0
DA:290,0
DA:291,0
DA:299,0
DA:343,1353
DA:346,1353
DA:347,0
DA:350,1353
DA:351,1353
DA:358,0
DA:361,0
DA:362,0
DA:366,43
DA:368,43
DA:369,0
DA:371,43
DA:373,0
DA:374,0
DA:375,0
DA:376,0
DA:377,0
DA:378,0
DA:381,43
DA:385,163
DA:388,163
DA:389,0
DA:391,163
DA:395,20
DA:397,20
DA:398,0
DA:400,20
DA:401,0
DA:403,20
DA:407,0
DA:409,0
DA:410,0
DA:412,0
DA:413,0
DA:415,0
DA:419,965
DA:421,965
DA:422,0
DA:424,965
DA:425,0
DA:427,965
DA:431,0
DA:433,0
DA:434,0
DA:436,0
DA:437,0
DA:439,0
DA:996,3
DA:1002,3
LF:87
LH:21
end_of_record
TN:
SF:/usr/include/c++/14/bits/move.h
FN:126,127,_ZSt4moveIRN7testing18PolymorphicMatcherINS0_8internal15EndsWithMatcherINSt7__cxx1112basic_stringIcSt11char_traitsIcESaIcEEEEEEEEONSt16remove_referenceIT_E4typeEOSE_
FN:126,127,_ZSt4moveIRN7testing18PolymorphicMatcherINS0_8internal16HasSubstrMatcherINSt7__cxx1112basic_stringIcSt11char_traitsIcESaIcEEEEEEEEONSt16remove_referenceIT_E4typeEOSE_
FN:126,127,_ZSt4moveIRN7testing18PolymorphicMatcherINS0_8internal17StartsWithMatcherINSt7__cxx1112basic_stringIcSt11char_traitsIcESaIcEEEEEEEEONSt16remove_referenceIT_E4typeEOSE_
FN:126,127,_ZSt4moveIRN7testing18PolymorphicMatcherINS0_8internal18StrEqualityMatcherINSt7__cxx1112basic_stringIcSt11char_traitsIcESaIcEEEEEEEEONSt16remove_referenceIT_E4typeEOSE_
FN:126,127,_ZSt4moveIRN7testing8internal10NotMatcherINS0_18PolymorphicMatcherINS1_16HasSubstrMatcherINSt7__cxx1112basic_stringIcSt11char_traitsIcESaIcEEEEEEEEEEONSt16remove_referenceIT_E4typeEOSG_
FN:126,127,_ZSt4moveIRN7testing8internal10NotMatcherINS0_18PolymorphicMatcherINS1_18StrEqualityMatcherINSt7__cxx1112basic_stringIcSt11char_traitsIcESaIcEEEEEEEEEEONSt16remove_referenceIT_E4typeEOSG_
FN:126,127,_ZSt4moveIRN7testing8internal10NotMatcherINS0_18PolymorphicMatcherINS1_19MatchesRegexMatcherEEEEEEONSt16remove_referenceIT_E4typeEOS9_
FN:126,127,_ZSt4moveIRN7testing8internal10NotMatcherIPKcEEEONSt16remove_referenceIT_E4typeEOS8_
FN:126,127,_ZSt4moveIRNSt7__cxx1112basic_stringIcSt11char_traitsIcESaIcEEEEONSt16remove_referenceIT_E4typeEOS8_
FN:126,127,_ZSt4moveIRPKN7testing16MatcherInterfaceIRKNSt7__cxx1112basic_stringIcSt11char_traitsIcESaIcEEEEEEONSt16remove_referenceIT_E4typeEOSF_
FN:126,127,_ZSt4moveIRPNSt7__cxx1112basic_stringIcSt11char_traitsIcESaIcEEEEONSt16remove_referenceIT_E4typeEOS9_
FN:126,127,_ZSt4moveIRPNSt7__cxx1118basic_stringstreamIcSt11char_traitsIcESaIcEEEEONSt16remove_referenceIT_E4typeEOS9_
FN:126,127,_ZSt4moveIRSaIcEEONSt16remove_referenceIT_E4typeEOS3_
FN:126,127,_ZSt4moveIRSt10unique_ptrIKN7testing16MatcherInterfaceIRKNSt7__cxx1112basic_stringIcSt11char_traitsIcESaIcEEEEESt14default_deleteISC_EEEONSt16remove_referenceIT_E4typeEOSI_
FN:126,127,_ZSt4moveIRSt5tupleIJPKN7testing16MatcherInterfaceIRKNSt7__cxx1112basic_stringIcSt11char_traitsIcESaIcEEEEESt14default_deleteISC_EEEEONSt16remove_referenceIT_E4typeEOSJ_
FN:162,163,_ZSt9addressofIKcEPT_RS1_
FN:162,163,_ZSt9addressofIcEPT_RS0_
FN:51,52,_ZSt11__addressofIKNSt7__cxx1112basic_stringIcSt11char_traitsIcESaIcEEEEPT_RS7_
FN:51,52,_ZSt11__addressofIKcEPT_RS1_
FN:51,52,_ZSt11__addressofIcEPT_RS0_
FN:70,71,_ZSt7forwardIPKN7testing16MatcherInterfaceIRKNSt7__cxx1112basic_stringIcSt11char_traitsIcESaIcEEEEEEOT_RNSt16remove_referenceISD_E4typeE
FN:70,71,_ZSt7forwardIPKN7testing8internal11MatcherBaseIRKNSt7__cxx1112basic_stringIcSt11char_traitsIcESaIcEEEEEEOT_RNSt16remove_referenceISE_E4typeE
FN:70,71,_ZSt7forwardIRKcEOT_RNSt16remove_referenceIS2_E4typeE
FN:70,71,_ZSt7forwardIRPKN7testing16MatcherInterfaceIRKNSt7__cxx1112basic_stringIcSt11char_traitsIcESaIcEEEEEEOT_RNSt16remove_referenceISE_E4typeE
FN:70,71,_ZSt7forwardIRcEOT_RNSt16remove_referenceIS1_E4typeE
FN:70,71,_ZSt7forwardISt14default_deleteINSt7__cxx1112basic_stringIcSt11char_traitsIcESaIcEEEEEOT_RNSt16remove_referenceIS8_E4typeE
FNDA:2,_ZSt4moveIRN7testing18PolymorphicMatcherINS0_8internal15EndsWithMatcherINSt7__cxx1112basic_stringIcSt11char_traitsIcESaIcEEEEEEEEONSt16remove_referenceIT_E4typeEOSE_
FNDA:8,_ZSt4moveIRN7testing18PolymorphicMatcherINS0_8internal16HasSubstrMatcherINSt7__cxx1112basic_stringIcSt11char_traitsIcESaIcEEEEEEEEONSt16remove_referenceIT_E4typeEOSE_
FNDA:2,_ZSt4moveIRN7testing18PolymorphicMatcherINS0_8internal17StartsWithMatcherINSt7__cxx1112basic_stringIcSt11char_traitsIcESaIcEEEEEEEEONSt16remove_referenceIT_E4typeEOSE_
FNDA:2,_ZSt4moveIRN7testing18PolymorphicMatcherINS0_8internal18StrEqualityMatcherINSt7__cxx1112basic_stringIcSt11char_traitsIcESaIcEEEEEEEEONSt16remove_referenceIT_E4typeEOSE_
FNDA:2,_ZSt4moveIRN7testing8internal10NotMatcherINS0_18PolymorphicMatcherINS1_16HasSubstrMatcherINSt7__cxx1112basic_stringIcSt11char_traitsIcESaIcEEEEEEEEEEONSt16remove_referenceIT_E4typeEOSG_
FNDA:4,_ZSt4moveIRN7testing8internal10NotMatcherINS0_18PolymorphicMatcherINS1_18StrEqualityMatcherINSt7__cxx1112basic_stringIcSt11char_traitsIcESaIcEEEEEEEEEEONSt16remove_referenceIT_E4typeEOSG_
FNDA:4,_ZSt4moveIRN7testing8internal10NotMatcherINS0_18PolymorphicMatcherINS1_19MatchesRegexMatcherEEEEEEONSt16remove_referenceIT_E4typeEOS9_
FNDA:6,_ZSt4moveIRN7testing8internal10NotMatcherIPKcEEEONSt16remove_referenceIT_E4typeEOS8_
FNDA:33,_ZSt4moveIRNSt7__cxx1112basic_stringIcSt11char_traitsIcESaIcEEEEONSt16remove_referenceIT_E4typeEOS8_
FNDA:20,_ZSt4moveIRPKN7testing16MatcherInterfaceIRKNSt7__cxx1112basic_stringIcSt11char_traitsIcESaIcEEEEEEONSt16remove_referenceIT_E4typeEOSF_
FNDA:0,_ZSt4moveIRPNSt7__cxx1112basic_stringIcSt11char_traitsIcESaIcEEEEONSt16remove_referenceIT_E4typeEOS9_
FNDA:0,_ZSt4moveIRPNSt7__cxx1118basic_stringstreamIcSt11char_traitsIcESaIcEEEEONSt16remove_referenceIT_E4typeEOS9_
FNDA:442,_ZSt4moveIRSaIcEEONSt16remove_referenceIT_E4typeEOS3_
FNDA:20,_ZSt4moveIRSt10unique_ptrIKN7testing16MatcherInterfaceIRKNSt7__cxx1112basic_stringIcSt11char_traitsIcESaIcEEEEESt14default_deleteISC_EEEONSt16remove_referenceIT_E4typeEOSI_
FNDA:20,_ZSt4moveIRSt5tupleIJPKN7testing16MatcherInterfaceIRKNSt7__cxx1112basic_stringIcSt11char_traitsIcESaIcEEEEESt14default_deleteISC_EEEEONSt16remove_referenceIT_E4typeEOSJ_
FNDA:1682,_ZSt9addressofIKcEPT_RS1_
FNDA:594,_ZSt9addressofIcEPT_RS0_
FNDA:170,_ZSt11__addressofIKNSt7__cxx1112basic_stringIcSt11char_traitsIcESaIcEEEEPT_RS7_
FNDA:1682,_ZSt11__addressofIKcEPT_RS1_
FNDA:594,_ZSt11__addressofIcEPT_RS0_
FNDA:0,_ZSt7forwardIPKN7testing16MatcherInterfaceIRKNSt7__cxx1112basic_stringIcSt11char_traitsIcESaIcEEEEEEOT_RNSt16remove_referenceISD_E4typeE
FNDA:0,_ZSt7forwardIPKN7testing8internal11MatcherBaseIRKNSt7__cxx1112basic_stringIcSt11char_traitsIcESaIcEEEEEEOT_RNSt16remove_referenceISE_E4typeE
FNDA:0,_ZSt7forwardIRKcEOT_RNSt16remove_referenceIS2_E4typeE
FNDA:20,_ZSt7forwardIRPKN7testing16MatcherInterfaceIRKNSt7__cxx1112basic_stringIcSt11char_traitsIcESaIcEEEEEEOT_RNSt16remove_referenceISE_E4typeE
FNDA:0,_ZSt7forwardIRcEOT_RNSt16remove_referenceIS1_E4typeE
FNDA:0,_ZSt7forwardISt14default_deleteINSt7__cxx1112basic_stringIcSt11char_traitsIcESaIcEEEEEOT_RNSt16remove_referenceIS8_E4typeE
FNF:26
FNH:19
DA:51,2446
DA:52,2446
DA:70,20
DA:71,20
DA:126,565
DA:127,565
DA:162,2276
DA:163,2276
LF:8
LH:8
end_of_record
TN:
SF:/usr/include/c++/14/bits/new_allocator.h
FN:126,152,_ZNSt15__new_allocatorIcE8allocateEmPKv
FN:156,173,_ZNSt15__new_allocatorIcE10deallocateEPcm
FNDA:751,_ZNSt15__new_allocatorIcE8allocateEmPKv
FNDA:30,_ZNSt15__new_allocatorIcE10deallocateEPcm
FNF:2
FNH:2
BRDA:134,0,0,0
BRDA:134,0,1,751
BRF:2
BRH:1
DA:88,156
DA:92,751
DA:126,751
DA:134,751
DA:140,0
DA:151,751
DA:156,30
DA:172,30
DA:233,751
LF:9
LH:8
end_of_record
TN:
SF:/usr/include/c++/14/bits/ptr_traits.h
FN:134,135,_ZNSt19__ptr_traits_ptr_toIPKcS0_Lb0EE10pointer_toERS0_
FN:134,135,_ZNSt19__ptr_traits_ptr_toIPccLb0EE10pointer_toERc
FNDA:1682,_ZNSt19__ptr_traits_ptr_toIPKcS0_Lb0EE10pointer_toERS0_
FNDA:594,_ZNSt19__ptr_traits_ptr_toIPccLb0EE10pointer_toERc
FNF:2
FNH:2
DA:134,2276
DA:135,2276
LF:2
LH:2
end_of_record
TN:
SF:/usr/include/c++/14/bits/random.h
FN:1760,1760,_ZNSt13random_deviceC2Ev
FN:1765,1766,_ZNSt13random_deviceD2Ev
FN:1781,1782,_ZNSt13random_deviceclEv
FN:244,250,_ZNSt8__detail4_ModImLm4294967296ELm1ELm0ELb1ELb1EE6__calcEm
FN:244,250,_ZNSt8__detail4_ModImLm624ELm1ELm0ELb1ELb1EE6__calcEm
FN:255,261,_ZNSt8__detail5__modImLm4294967296ELm1ELm0EEET_S1_
FN:255,261,_ZNSt8__detail5__modImLm624ELm1ELm0EEET_S1_
FN:647,648,_ZNSt23mersenne_twister_engineImLm32ELm624ELm397ELm31ELm2567483615ELm11ELm4294967295ELm7ELm2636928640ELm15ELm4022730752ELm18ELm1812433253EEC2Em
FNDA:1,_ZNSt13random_deviceC2Ev
FNDA:1,_ZNSt13random_deviceD2Ev
FNDA:1,_ZNSt13random_deviceclEv
FNDA:624,_ZNSt8__detail4_ModImLm4294967296ELm1ELm0ELb1ELb1EE6__calcEm
FNDA:623,_ZNSt8__detail4_ModImLm624ELm1ELm0ELb1ELb1EE6__calcEm
FNDA:624,_ZNSt8__detail5__modImLm4294967296ELm1ELm0EEET_S1_
FNDA:623,_ZNSt8__detail5__modImLm624ELm1ELm0EEET_S1_
FNDA:1,_ZNSt23mersenne_twister_engineImLm32ELm624ELm397ELm31ELm2567483615ELm11ELm4294967295ELm7ELm2636928640ELm15ELm4022730752ELm18ELm1812433253EEC2Em
FNF:8
FNH:8
BRDA:1760,0,0,1
BRDA:1760,e0,1,0
BRDA:1760,0,2,1
BRDA:1760,e0,3,0
BRF:4
BRH:2
DA:244,1247
DA:246,1247
DA:248,1247
DA:249,1247
DA:255,1247
DA:260,1247
DA:647,1
DA:648,1
DA:1760,3
DA:1765,1
DA:1766,1
DA:1781,1
DA:1782,1
LF:13
LH:13
end_of_record
TN:
SF:/usr/include/c++/14/bits/random.tcc
FN:326,343,_ZNSt23mersenne_twister_engineImLm32ELm624ELm397ELm31ELm2567483615ELm11ELm4294967295ELm7ELm2636928640ELm15ELm4022730752ELm18ELm1812433253EE4seedEm
FN:397,425,_ZNSt23mersenne_twister_engineImLm32ELm624ELm397ELm31ELm2567483615ELm11ELm4294967295ELm7ELm2636928640ELm15ELm4022730752ELm18ELm1812433253EE11_M_gen_randEv
FN:453,469,_ZNSt23mersenne_twister_engineImLm32ELm624ELm397ELm31ELm2567483615ELm11ELm4294967295ELm7ELm2636928640ELm15ELm4022730752ELm18ELm1812433253EEclEv
FNDA:1,_ZNSt23mersenne_twister_engineImLm32ELm624ELm397ELm31ELm2567483615ELm11ELm4294967295ELm7ELm2636928640ELm15ELm4022730752ELm18ELm1812433253EE4seedEm
FNDA:1,_ZNSt23mersenne_twister_engineImLm32ELm624ELm397ELm31ELm2567483615ELm11ELm4294967295ELm7ELm2636928640ELm15ELm4022730752ELm18ELm1812433253EE11_M_gen_randEv
FNDA:10,_ZNSt23mersenne_twister_engineImLm32ELm624ELm397ELm31ELm2567483615ELm11ELm4294967295ELm7ELm2636928640ELm15ELm4022730752ELm18ELm1812433253EEclEv
FNF:3
FNH:3
BRDA:333,0,0,623
BRDA:333,0,1,1
BRDA:404,0,0,227
BRDA:404,0,1,1
BRDA:409,0,0,105
BRDA:409,0,1,122
BRDA:412,0,0,396
BRDA:412,0,1,1
BRDA:417,0,0,206
BRDA:417,0,1,190
BRDA:423,0,0,1
BRDA:423,0,1,0
BRDA:458,0,0,1
BRDA:458,0,1,9
BRF:14
BRH:13
DA:326,1
DA:330,1
DA:331,1
DA:333,624
DA:335,623
DA:336,623
DA:337,623
DA:338,623
DA:339,623
DA:340,623
DA:342,1
DA:343,1
DA:397,1
DA:401,1
DA:402,1
DA:404,228
DA:406,227
DA:407,227
DA:408,454
DA:409,227
DA:412,397
DA:414,396
DA:415,396
DA:416,792
DA:417,396
DA:420,1
DA:421,1
DA:422,2
DA:423,1
DA:424,1
DA:425,1
DA:453,10
DA:458,10
DA:459,1
DA:462,10
DA:463,10
DA:464,10
DA:465,10
DA:466,10
DA:468,10
LF:40
LH:40
end_of_record
TN:
SF:/usr/include/c++/14/bits/shared_ptr.h
FN:203,203,_ZNSt10shared_ptrIKN7testing8internal2REEEC2ERKS4_
FN:213,213,_ZNSt10shared_ptrIKN7testing8internal2REEEC2IS3_vEEPT_
FNDA:12,_ZNSt10shared_ptrIKN7testing8internal2REEEC2ERKS4_
FNDA:2,_ZNSt10shared_ptrIKN7testing8internal2REEEC2IS3_vEEPT_
FNF:2
FNH:2
DA:203,12
DA:213,2
LF:2
LH:2
end_of_record
TN:
SF:/usr/include/c++/14/bits/shared_ptr_base.h
FN:1066,1070,_ZNSt14__shared_countILN9__gnu_cxx12_Lock_policyE2EED2Ev
FN:1072,1077,_ZNSt14__shared_countILN9__gnu_cxx12_Lock_policyE2EEC2ERKS2_
FN:129,130,_ZNSt16_Sp_counted_baseILN9__gnu_cxx12_Lock_policyE2EEC2Ev
FN:133,134,_ZNSt16_Sp_counted_baseILN9__gnu_cxx12_Lock_policyE2EED0Ev
FN:133,134,_ZNSt16_Sp_counted_baseILN9__gnu_cxx12_Lock_policyE2EED2Ev
FN:1348,1352,_ZNKSt19__shared_ptr_accessIKN7testing8internal2REELN9__gnu_cxx12_Lock_policyE2ELb0ELb0EEdeEv
FN:1355,1359,_ZNKSt19__shared_ptr_accessIKN7testing8internal2REELN9__gnu_cxx12_Lock_policyE2ELb0ELb0EEptEv
FN:1363,1364,_ZNKSt19__shared_ptr_accessIKN7testing8internal2REELN9__gnu_cxx12_Lock_policyE2ELb0ELb0EE6_M_getEv
FN:143,144,_ZNSt16_Sp_counted_baseILN9__gnu_cxx12_Lock_policyE2EE10_M_destroyEv
FN:1469,1475,_ZNSt12__shared_ptrIKN7testing8internal2REELN9__gnu_cxx12_Lock_policyE2EEC2IS3_vEEPT_
FN:151,152,_ZNSt16_Sp_counted_baseILN9__gnu_cxx12_Lock_policyE2EE15_M_add_ref_copyEv
FN:1523,1523,_ZNSt12__shared_ptrIKN7testing8internal2REELN9__gnu_cxx12_Lock_policyE2EEC2ERKS6_
FN:1525,1525,_ZNSt12__shared_ptrIKN7testing8internal2REELN9__gnu_cxx12_Lock_policyE2EED2Ev
FN:1666,1667,_ZNKSt12__shared_ptrIKN7testing8internal2REELN9__gnu_cxx12_Lock_policyE2EE3getEv
FN:172,193,_ZNSt16_Sp_counted_baseILN9__gnu_cxx12_Lock_policyE2EE19_M_release_last_useEv
FN:1766,1767,_ZNSt12__shared_ptrIKN7testing8internal2REELN9__gnu_cxx12_Lock_policyE2EE31_M_enable_shared_from_this_withIS3_S2_EENSt9enable_ifIXntsrNS6_15__has_esft_baseIT0_vEE5valueEvE4typeEPT_
FN:198,199,_ZNSt16_Sp_counted_baseILN9__gnu_cxx12_Lock_policyE2EE24_M_release_last_use_coldEv
FN:317,363,_ZNSt16_Sp_counted_baseILN9__gnu_cxx12_Lock_policyE2EE10_M_releaseEv
FN:423,424,_ZNSt15_Sp_counted_ptrIPKN7testing8internal2REELN9__gnu_cxx12_Lock_policyE2EEC2ES4_
FN:427,428,_ZNSt15_Sp_counted_ptrIPKN7testing8internal2REELN9__gnu_cxx12_Lock_policyE2EE10_M_disposeEv
FN:431,432,_ZNSt15_Sp_counted_ptrIPKN7testing8internal2REELN9__gnu_cxx12_Lock_policyE2EE10_M_destroyEv
FN:435,436,_ZNSt15_Sp_counted_ptrIPKN7testing8internal2REELN9__gnu_cxx12_Lock_policyE2EE14_M_get_deleterERKSt9type_info
FN:911,922,_ZNSt14__shared_countILN9__gnu_cxx12_Lock_policyE2EEC2IPKN7testing8internal2REEEET_
FN:925,927,_ZNSt14__shared_countILN9__gnu_cxx12_Lock_policyE2EEC2IPKN7testing8internal2REEEET_St17integral_constantIbLb0EE
FNDA:14,_ZNSt14__shared_countILN9__gnu_cxx12_Lock_policyE2EED2Ev
FNDA:12,_ZNSt14__shared_countILN9__gnu_cxx12_Lock_policyE2EEC2ERKS2_
FNDA:2,_ZNSt16_Sp_counted_baseILN9__gnu_cxx12_Lock_policyE2EEC2Ev
FNDA:0,_ZNSt16_Sp_counted_baseILN9__gnu_cxx12_Lock_policyE2EED0Ev
FNDA:2,_ZNSt16_Sp_counted_baseILN9__gnu_cxx12_Lock_policyE2EED2Ev
FNDA:2,_ZNKSt19__shared_ptr_accessIKN7testing8internal2REELN9__gnu_cxx12_Lock_policyE2ELb0ELb0EEdeEv
FNDA:0,_ZNKSt19__shared_ptr_accessIKN7testing8internal2REELN9__gnu_cxx12_Lock_policyE2ELb0ELb0EEptEv
FNDA:2,_ZNKSt19__shared_ptr_accessIKN7testing8internal2REELN9__gnu_cxx12_Lock_policyE2ELb0ELb0EE6_M_getEv
FNDA:0,_ZNSt16_Sp_counted_baseILN9__gnu_cxx12_Lock_policyE2EE10_M_destroyEv
FNDA:2,_ZNSt12__shared_ptrIKN7testing8internal2REELN9__gnu_cxx12_Lock_policyE2EEC2IS3_vEEPT_
FNDA:12,_ZNSt16_Sp_counted_baseILN9__gnu_cxx12_Lock_policyE2EE15_M_add_ref_copyEv
FNDA:12,_ZNSt12__shared_ptrIKN7testing8internal2REELN9__gnu_cxx12_Lock_policyE2EEC2ERKS6_
FNDA:14,_ZNSt12__shared_ptrIKN7testing8internal2REELN9__gnu_cxx12_Lock_policyE2EED2Ev
FNDA:2,_ZNKSt12__shared_ptrIKN7testing8internal2REELN9__gnu_cxx12_Lock_policyE2EE3getEv
FNDA:0,_ZNSt16_Sp_counted_baseILN9__gnu_cxx12_Lock_policyE2EE19_M_release_last_useEv
FNDA:2,_ZNSt12__shared_ptrIKN7testing8internal2REELN9__gnu_cxx12_Lock_policyE2EE31_M_enable_shared_from_this_withIS3_S2_EENSt9enable_ifIXntsrNS6_15__has_esft_baseIT0_vEE5valueEvE4typeEPT_
FNDA:0,_ZNSt16_Sp_counted_baseILN9__gnu_cxx12_Lock_policyE2EE24_M_release_last_use_coldEv
FNDA:14,_ZNSt16_Sp_counted_baseILN9__gnu_cxx12_Lock_policyE2EE10_M_releaseEv
FNDA:2,_ZNSt15_Sp_counted_ptrIPKN7testing8internal2REELN9__gnu_cxx12_Lock_policyE2EEC2ES4_
FNDA:2,_ZNSt15_Sp_counted_ptrIPKN7testing8internal2REELN9__gnu_cxx12_Lock_policyE2EE10_M_disposeEv
FNDA:2,_ZNSt15_Sp_counted_ptrIPKN7testing8internal2REELN9__gnu_cxx12_Lock_policyE2EE10_M_destroyEv
FNDA:0,_ZNSt15_Sp_counted_ptrIPKN7testing8internal2REELN9__gnu_cxx12_Lock_policyE2EE14_M_get_deleterERKSt9type_info
FNDA:2,_ZNSt14__shared_countILN9__gnu_cxx12_Lock_policyE2EEC2IPKN7testing8internal2REEEET_
FNDA:2,_ZNSt14__shared_countILN9__gnu_cxx12_Lock_policyE2EEC2IPKN7testing8internal2REEEET_St17integral_constantIbLb0EE
FNF:24
FNH:18
BRDA:144,0,0,-
BRDA:144,0,1,-
BRDA:188,0,0,-
BRDA:188,0,1,-
BRDA:337,0,0,2
BRDA:337,0,1,12
BRDA:350,0,0,0
BRDA:350,0,1,12
BRDA:428,0,0,2
BRDA:428,0,1,0
BRDA:432,0,0,2
BRDA:432,0,1,0
BRDA:915,0,0,2
BRDA:915,e0,1,0
BRDA:919,0,0,0
BRDA:919,0,1,0
BRDA:1068,0,0,14
BRDA:1068,0,1,0
BRDA:1075,0,0,12
BRDA:1075,0,1,0
BRDA:1350,0,0,0
BRDA:1350,0,1,2
BRDA:1350,0,2,0
BRDA:1350,0,3,0
BRF:24
BRH:9
DA:129,2
DA:130,2
DA:133,2
DA:134,2
DA:143,0
DA:144,0
DA:151,12
DA:152,12
DA:172,0
DA:175,0
DA:187,0
DA:188,0
DA:191,0
DA:193,0
DA:198,0
DA:199,0
DA:317,14
DA:321,14
DA:324,14
DA:328,14
DA:331,14
DA:332,14
DA:333,14
DA:334,14
DA:337,14
DA:343,2
DA:346,2
DA:347,2
DA:348,2
DA:350,24
DA:351,0
DA:353,0
DA:354,0
DA:423,2
DA:424,2
DA:427,2
DA:428,2
DA:431,2
DA:432,2
DA:435,0
DA:436,0
DA:911,2
DA:915,2
DA:917,0
DA:919,0
DA:920,0
DA:922,2
DA:925,2
DA:926,2
DA:927,2
DA:1066,14
DA:1068,14
DA:1069,14
DA:1070,14
DA:1072,12
DA:1073,12
DA:1075,12
DA:1076,12
DA:1077,12
DA:1348,2
DA:1350,2
DA:1351,2
DA:1355,0
DA:1358,0
DA:1363,2
DA:1364,2
DA:1469,2
DA:1470,2
DA:1474,2
DA:1475,2
DA:1523,12
DA:1525,14
DA:1666,2
DA:1667,2
DA:1766,2
DA:1767,2
LF:76
LH:56
end_of_record
TN:
SF:/usr/include/c++/14/bits/stl_algo.h
FN:4208,4221,_ZSt9transformIN9__gnu_cxx17__normal_iteratorIPcNSt7__cxx1112basic_stringIcSt11char_traitsIcESaIcEEEEES9_PDoFiiEET0_T_SD_SC_T1_
FNDA:6,_ZSt9transformIN9__gnu_cxx17__normal_iteratorIPcNSt7__cxx1112basic_stringIcSt11char_traitsIcESaIcEEEEES9_PDoFiiEET0_T_SD_SC_T1_
FNF:1
FNH:1
BRDA:4218,0,0,31
BRDA:4218,0,1,6
BRF:2
BRH:2
DA:4208,6
DA:4218,37
DA:4219,31
DA:4220,6
LF:4
LH:4
end_of_record
TN:
SF:/usr/include/c++/14/bits/stl_algobase.h
FN:233,241,_ZSt3minImERKT_S2_S2_
FNDA:3,_ZSt3minImERKT_S2_S2_
FNF:1
FNH:1
BRDA:238,0,0,2
BRDA:238,0,1,1
BRF:2
BRH:2
DA:233,3
DA:238,3
DA:239,2
DA:240,1
LF:4
LH:4
end_of_record
TN:
SF:/usr/include/c++/14/bits/stl_construct.h
FN:94,97,_ZSt12construct_atIcJRKcEEDTgsnwcvPvLi0E_T_pispcl7declvalIT0_EEEEPS3_DpOS4_
FN:94,97,_ZSt12construct_atIcJRcEEDTgsnwcvPvLi0E_T_pispcl7declvalIT0_EEEEPS2_DpOS3_
FNDA:0,_ZSt12construct_atIcJRKcEEDTgsnwcvPvLi0E_T_pispcl7declvalIT0_EEEEPS3_DpOS4_
FNDA:0,_ZSt12construct_atIcJRcEEDTgsnwcvPvLi0E_T_pispcl7declvalIT0_EEEEPS2_DpOS3_
FNF:2
FNH:0
DA:94,0
DA:97,0
LF:2
LH:0
end_of_record
TN:
SF:/usr/include/c++/14/bits/stl_function.h
FN:448,455,_ZNKSt4lessIPKcEclES1_S1_
FNDA:234,_ZNKSt4lessIPKcEclES1_S1_
FNF:1
FNH:1
BRDA:451,0,0,0
BRDA:451,0,1,234
BRF:2
BRH:1
DA:448,234
DA:451,234
DA:452,0
DA:454,234
LF:4
LH:3
end_of_record
TN:
SF:/usr/include/c++/14/bits/stl_iterator.h
FN:1067,1068,_ZN9__gnu_cxx17__normal_iteratorIPKcNSt7__cxx1112basic_stringIcSt11char_traitsIcESaIcEEEEC2ERKS2_
FN:1067,1068,_ZN9__gnu_cxx17__normal_iteratorIPcNSt7__cxx1112basic_stringIcSt11char_traitsIcESaIcEEEEC2ERKS1_
FN:1090,1091,_ZNK9__gnu_cxx17__normal_iteratorIPKcNSt7__cxx1112basic_stringIcSt11char_traitsIcESaIcEEEEdeEv
FN:1090,1091,_ZNK9__gnu_cxx17__normal_iteratorIPcNSt7__cxx1112basic_stringIcSt11char_traitsIcESaIcEEEEdeEv
FN:1100,1104,_ZN9__gnu_cxx17__normal_iteratorIPKcNSt7__cxx1112basic_stringIcSt11char_traitsIcESaIcEEEEppEv
FN:1100,1104,_ZN9__gnu_cxx17__normal_iteratorIPcNSt7__cxx1112basic_stringIcSt11char_traitsIcESaIcEEEEppEv
FN:1153,1154,_ZNK9__gnu_cxx17__normal_iteratorIPKcNSt7__cxx1112basic_stringIcSt11char_traitsIcESaIcEEEE4baseEv
FN:1153,1154,_ZNK9__gnu_cxx17__normal_iteratorIPcNSt7__cxx1112basic_stringIcSt11char_traitsIcESaIcEEEE4baseEv
FN:1188,1194,_ZN9__gnu_cxxeqIPKcNSt7__cxx1112basic_stringIcSt11char_traitsIcESaIcEEEEEbRKNS_17__normal_iteratorIT_T0_EESE_QrqXeqcldtfL0p_4baseEcldtfL0p0_4baseERSt14convertible_toIbEE
FN:1188,1194,_ZN9__gnu_cxxeqIPcNSt7__cxx1112basic_stringIcSt11char_traitsIcESaIcEEEEEbRKNS_17__normal_iteratorIT_T0_EESD_QrqXeqcldtfL0p_4baseEcldtfL0p0_4baseERSt14convertible_toIbEE
FNDA:28,_ZN9__gnu_cxx17__normal_iteratorIPKcNSt7__cxx1112basic_stringIcSt11char_traitsIcESaIcEEEEC2ERKS2_
FNDA:18,_ZN9__gnu_cxx17__normal_iteratorIPcNSt7__cxx1112basic_stringIcSt11char_traitsIcESaIcEEEEC2ERKS1_
FNDA:52,_ZNK9__gnu_cxx17__normal_iteratorIPKcNSt7__cxx1112basic_stringIcSt11char_traitsIcESaIcEEEEdeEv
FNDA:62,_ZNK9__gnu_cxx17__normal_iteratorIPcNSt7__cxx1112basic_stringIcSt11char_traitsIcESaIcEEEEdeEv
FNDA:52,_ZN9__gnu_cxx17__normal_iteratorIPKcNSt7__cxx1112basic_stringIcSt11char_traitsIcESaIcEEEEppEv
FNDA:62,_ZN9__gnu_cxx17__normal_iteratorIPcNSt7__cxx1112basic_stringIcSt11char_traitsIcESaIcEEEEppEv
FNDA:132,_ZNK9__gnu_cxx17__normal_iteratorIPKcNSt7__cxx1112basic_stringIcSt11char_traitsIcESaIcEEEE4baseEv
FNDA:74,_ZNK9__gnu_cxx17__normal_iteratorIPcNSt7__cxx1112basic_stringIcSt11char_traitsIcESaIcEEEE4baseEv
FNDA:66,_ZN9__gnu_cxxeqIPKcNSt7__cxx1112basic_stringIcSt11char_traitsIcESaIcEEEEEbRKNS_17__normal_iteratorIT_T0_EESE_QrqXeqcldtfL0p_4baseEcldtfL0p0_4baseERSt14convertible_toIbEE
FNDA:37,_ZN9__gnu_cxxeqIPcNSt7__cxx1112basic_stringIcSt11char_traitsIcESaIcEEEEEbRKNS_17__normal_iteratorIT_T0_EESD_QrqXeqcldtfL0p_4baseEcldtfL0p0_4baseERSt14convertible_toIbEE
FNF:10
FNH:10
DA:1067,46
DA:1068,46
DA:1090,114
DA:1091,114
DA:1100,114
DA:1102,114
DA:1103,114
DA:1153,206
DA:1154,206
DA:1188,103
DA:1194,103
LF:11
LH:11
end_of_record
TN:
SF:/usr/include/c++/14/bits/stl_iterator_base_funcs.h
FNF:0
FNH:0
DA:106,387
DA:151,774
DA:152,774
LF:3
LH:3
end_of_record
TN:
SF:/usr/include/c++/14/bits/stl_iterator_base_types.h
FNF:0
FNH:0
DA:240,387
LF:1
LH:1
end_of_record
TN:
SF:/usr/include/c++/14/bits/uniform_int_dist.h
FN:104,109,_ZNSt24uniform_int_distributionIiE10param_typeC2Eii
FN:112,113,_ZNKSt24uniform_int_distributionIiE10param_type1aEv
FN:116,117,_ZNKSt24uniform_int_distributionIiE10param_type1bEv
FN:142,146,_ZNSt24uniform_int_distributionIiEC2Eii
FN:203,204,_ZNSt24uniform_int_distributionIiEclISt23mersenne_twister_engineImLm32ELm624ELm397ELm31ELm2567483615ELm11ELm4294967295ELm7ELm2636928640ELm15ELm4022730752ELm18ELm1812433253EEEEiRT_
FN:257,281,_ZNSt24uniform_int_distributionIiE5_S_ndImSt23mersenne_twister_engineImLm32ELm624ELm397ELm31ELm2567483615ELm11ELm4294967295ELm7ELm2636928640ELm15ELm4022730752ELm18ELm1812433253EEjEET1_RT0_S4_
FN:287,373,_ZNSt24uniform_int_distributionIiEclISt23mersenne_twister_engineImLm32ELm624ELm397ELm31ELm2567483615ELm11ELm4294967295ELm7ELm2636928640ELm15ELm4022730752ELm18ELm1812433253EEEEiRT_RKNS0_10param_typeE
FNDA:1,_ZNSt24uniform_int_distributionIiE10param_typeC2Eii
FNDA:20,_ZNKSt24uniform_int_distributionIiE10param_type1aEv
FNDA:10,_ZNKSt24uniform_int_distributionIiE10param_type1bEv
FNDA:1,_ZNSt24uniform_int_distributionIiEC2Eii
FNDA:10,_ZNSt24uniform_int_distributionIiEclISt23mersenne_twister_engineImLm32ELm624ELm397ELm31ELm2567483615ELm11ELm4294967295ELm7ELm2636928640ELm15ELm4022730752ELm18ELm1812433253EEEEiRT_
FNDA:10,_ZNSt24uniform_int_distributionIiE5_S_ndImSt23mersenne_twister_engineImLm32ELm624ELm397ELm31ELm2567483615ELm11ELm4294967295ELm7ELm2636928640ELm15ELm4022730752ELm18ELm1812433253EEjEET1_RT0_S4_
FNDA:10,_ZNSt24uniform_int_distributionIiEclISt23mersenne_twister_engineImLm32ELm624ELm397ELm31ELm2567483615ELm11ELm4294967295ELm7ELm2636928640ELm15ELm4022730752ELm18ELm1812433253EEEEiRT_RKNS0_10param_typeE
FNF:7
FNH:7
BRDA:108,0,0,0
BRDA:108,0,1,1
BRDA:108,0,2,0
BRDA:108,0,3,0
BRDA:271,0,0,0
BRDA:271,0,1,10
BRDA:274,0,0,-
BRDA:274,0,1,-
BRDA:305,0,0,10
BRDA:305,0,1,0
BRDA:342,0,0,-
BRDA:342,0,1,-
BRDA:364,0,0,-
BRDA:364,e0,1,-
BRDA:367,0,0,-
BRDA:367,0,1,-
BRDA:367,0,2,-
BRDA:367,0,3,-
BRF:18
BRH:3
DA:104,1
DA:106,1
DA:108,1
DA:109,1
DA:112,20
DA:113,20
DA:116,10
DA:117,10
DA:142,1
DA:145,1
DA:146,1
DA:203,10
DA:204,10
DA:257,10
DA:269,10
DA:270,10
DA:271,10
DA:273,0
DA:274,0
DA:276,0
DA:277,0
DA:280,10
DA:287,10
DA:295,10
DA:296,10
DA:299,10
DA:301,10
DA:302,10
DA:305,10
DA:309,10
DA:327,10
DA:328,10
DA:342,0
DA:362,0
DA:363,0
DA:364,0
DA:365,0
DA:367,0
DA:370,0
DA:372,10
LF:40
LH:29
end_of_record
TN:
SF:/usr/include/c++/14/bits/unique_ptr.h
FN:1075,1076,_ZSt11make_uniqueINSt7__cxx1112basic_stringIcSt11char_traitsIcESaIcEEEJEENSt8__detail9_MakeUniqIT_E15__single_objectEDpOT0_
FN:168,168,_ZNSt15__uniq_ptr_implINSt7__cxx1112basic_stringIcSt11char_traitsIcESaIcEEESt14default_deleteIS5_EEC2Ev
FN:170,170,_ZNSt15__uniq_ptr_implIKN7testing16MatcherInterfaceIRKNSt7__cxx1112basic_stringIcSt11char_traitsIcESaIcEEEEESt14default_deleteISB_EEC2EPSB_
FN:170,170,_ZNSt15__uniq_ptr_implINSt7__cxx1112basic_stringIcSt11char_traitsIcESaIcEEESt14default_deleteIS5_EEC2EPS5_
FN:178,180,_ZNSt15__uniq_ptr_implIKN7testing16MatcherInterfaceIRKNSt7__cxx1112basic_stringIcSt11char_traitsIcESaIcEEEEESt14default_deleteISB_EEC2EOSE_
FN:183,188,_ZNSt15__uniq_ptr_implINSt7__cxx1112basic_stringIcSt11char_traitsIcESaIcEEESt14default_deleteIS5_EEaSEOS8_
FN:191,191,_ZNSt15__uniq_ptr_implIKN7testing16MatcherInterfaceIRKNSt7__cxx1112basic_stringIcSt11char_traitsIcESaIcEEEEESt14default_deleteISB_EE6_M_ptrEv
FN:191,191,_ZNSt15__uniq_ptr_implINSt7__cxx1112basic_stringIcSt11char_traitsIcESaIcEEESt14default_deleteIS5_EE6_M_ptrEv
FN:191,191,_ZNSt15__uniq_ptr_implINSt7__cxx1118basic_stringstreamIcSt11char_traitsIcESaIcEEESt14default_deleteIS5_EE6_M_ptrEv
FN:193,193,_ZNKSt15__uniq_ptr_implIKN7testing16MatcherInterfaceIRKNSt7__cxx1112basic_stringIcSt11char_traitsIcESaIcEEEEESt14default_deleteISB_EE6_M_ptrEv
FN:193,193,_ZNKSt15__uniq_ptr_implINSt7__cxx1112basic_stringIcSt11char_traitsIcESaIcEEESt14default_deleteIS5_EE6_M_ptrEv
FN:193,193,_ZNKSt15__uniq_ptr_implINSt7__cxx1118basic_stringstreamIcSt11char_traitsIcESaIcEEESt14default_deleteIS5_EE6_M_ptrEv
FN:195,195,_ZNSt15__uniq_ptr_implIKN7testing16MatcherInterfaceIRKNSt7__cxx1112basic_stringIcSt11char_traitsIcESaIcEEEEESt14default_deleteISB_EE10_M_deleterEv
FN:195,195,_ZNSt15__uniq_ptr_implINSt7__cxx1112basic_stringIcSt11char_traitsIcESaIcEEESt14default_deleteIS5_EE10_M_deleterEv
FN:195,195,_ZNSt15__uniq_ptr_implINSt7__cxx1118basic_stringstreamIcSt11char_traitsIcESaIcEEESt14default_deleteIS5_EE10_M_deleterEv
FN:200,206,_ZNSt15__uniq_ptr_implINSt7__cxx1112basic_stringIcSt11char_traitsIcESaIcEEESt14default_deleteIS5_EE5resetEPS5_
FN:209,214,_ZNSt15__uniq_ptr_implINSt7__cxx1112basic_stringIcSt11char_traitsIcESaIcEEESt14default_deleteIS5_EE7releaseEv
FN:236,236,_ZNSt15__uniq_ptr_dataIKN7testing16MatcherInterfaceIRKNSt7__cxx1112basic_stringIcSt11char_traitsIcESaIcEEEEESt14default_deleteISB_ELb1ELb1EEC2EOSE_
FN:237,237,_ZNSt15__uniq_ptr_dataINSt7__cxx1112basic_stringIcSt11char_traitsIcESaIcEEESt14default_deleteIS5_ELb1ELb1EEaSEOS8_
FN:298,300,_ZNSt10unique_ptrINSt7__cxx1112basic_stringIcSt11char_traitsIcESaIcEEESt14default_deleteIS5_EEC2IS7_vEEv
FN:311,313,_ZNSt10unique_ptrIKN7testing16MatcherInterfaceIRKNSt7__cxx1112basic_stringIcSt11char_traitsIcESaIcEEEEESt14default_deleteISB_EEC2ISD_vEEPSB_
FN:311,313,_ZNSt10unique_ptrINSt7__cxx1112basic_stringIcSt11char_traitsIcESaIcEEESt14default_deleteIS5_EEC2IS7_vEEPS5_
FN:360,360,_ZNSt10unique_ptrIKN7testing16MatcherInterfaceIRKNSt7__cxx1112basic_stringIcSt11char_traitsIcESaIcEEEEESt14default_deleteISB_EEC2EOSE_
FN:392,400,_ZNSt10unique_ptrIKN7testing16MatcherInterfaceIRKNSt7__cxx1112basic_stringIcSt11char_traitsIcESaIcEEEEESt14default_deleteISB_EED2Ev
FN:392,400,_ZNSt10unique_ptrINSt7__cxx1112basic_stringIcSt11char_traitsIcESaIcEEESt14default_deleteIS5_EED2Ev
FN:392,400,_ZNSt10unique_ptrINSt7__cxx1118basic_stringstreamIcSt11char_traitsIcESaIcEEESt14default_deleteIS5_EED2Ev
FN:408,408,_ZNSt10unique_ptrINSt7__cxx1112basic_stringIcSt11char_traitsIcESaIcEEESt14default_deleteIS5_EEaSEOS8_
FN:445,449,_ZNKSt10unique_ptrIKN7testing16MatcherInterfaceIRKNSt7__cxx1112basic_stringIcSt11char_traitsIcESaIcEEEEESt14default_deleteISB_EEdeEv
FN:445,449,_ZNKSt10unique_ptrINSt7__cxx1118basic_stringstreamIcSt11char_traitsIcESaIcEEESt14default_deleteIS5_EEdeEv
FN:454,458,_ZNKSt10unique_ptrINSt7__cxx1112basic_stringIcSt11char_traitsIcESaIcEEESt14default_deleteIS5_EEptEv
FN:463,464,_ZNKSt10unique_ptrIKN7testing16MatcherInterfaceIRKNSt7__cxx1112basic_stringIcSt11char_traitsIcESaIcEEEEESt14default_deleteISB_EE3getEv
FN:463,464,_ZNKSt10unique_ptrINSt7__cxx1112basic_stringIcSt11char_traitsIcESaIcEEESt14default_deleteIS5_EE3getEv
FN:463,464,_ZNKSt10unique_ptrINSt7__cxx1118basic_stringstreamIcSt11char_traitsIcESaIcEEESt14default_deleteIS5_EE3getEv
FN:469,470,_ZNSt10unique_ptrIKN7testing16MatcherInterfaceIRKNSt7__cxx1112basic_stringIcSt11char_traitsIcESaIcEEEEESt14default_deleteISB_EE11get_deleterEv
FN:469,470,_ZNSt10unique_ptrINSt7__cxx1112basic_stringIcSt11char_traitsIcESaIcEEESt14default_deleteIS5_EE11get_deleterEv
FN:469,470,_ZNSt10unique_ptrINSt7__cxx1118basic_stringstreamIcSt11char_traitsIcESaIcEEESt14default_deleteIS5_EE11get_deleterEv
FN:480,481,_ZNKSt10unique_ptrINSt7__cxx1112basic_stringIcSt11char_traitsIcESaIcEEESt14default_deleteIS5_EEcvbEv
FN:845,846,_ZSteqINSt7__cxx1112basic_stringIcSt11char_traitsIcESaIcEEESt14default_deleteIS5_EEbRKSt10unique_ptrIT_T0_EDn
FN:87,94,_ZNKSt14default_deleteIKN7testing16MatcherInterfaceIRKNSt7__cxx1112basic_stringIcSt11char_traitsIcESaIcEEEEEEclEPSB_
FN:87,94,_ZNKSt14default_deleteINSt7__cxx1112basic_stringIcSt11char_traitsIcESaIcEEEEclEPS5_
FN:87,94,_ZNKSt14default_deleteINSt7__cxx1118basic_stringstreamIcSt11char_traitsIcESaIcEEEEclEPS5_
FNDA:0,_ZSt11make_uniqueINSt7__cxx1112basic_stringIcSt11char_traitsIcESaIcEEEJEENSt8__detail9_MakeUniqIT_E15__single_objectEDpOT0_
FNDA:8,_ZNSt15__uniq_ptr_implINSt7__cxx1112basic_stringIcSt11char_traitsIcESaIcEEESt14default_deleteIS5_EEC2Ev
FNDA:20,_ZNSt15__uniq_ptr_implIKN7testing16MatcherInterfaceIRKNSt7__cxx1112basic_stringIcSt11char_traitsIcESaIcEEEEESt14default_deleteISB_EEC2EPSB_
FNDA:0,_ZNSt15__uniq_ptr_implINSt7__cxx1112basic_stringIcSt11char_traitsIcESaIcEEESt14default_deleteIS5_EEC2EPS5_
FNDA:20,_ZNSt15__uniq_ptr_implIKN7testing16MatcherInterfaceIRKNSt7__cxx1112basic_stringIcSt11char_traitsIcESaIcEEEEESt14default_deleteISB_EEC2EOSE_
FNDA:0,_ZNSt15__uniq_ptr_implINSt7__cxx1112basic_stringIcSt11char_traitsIcESaIcEEESt14default_deleteIS5_EEaSEOS8_
FNDA:80,_ZNSt15__uniq_ptr_implIKN7testing16MatcherInterfaceIRKNSt7__cxx1112basic_stringIcSt11char_traitsIcESaIcEEEEESt14default_deleteISB_EE6_M_ptrEv
FNDA:100,_ZNSt15__uniq_ptr_implINSt7__cxx1112basic_stringIcSt11char_traitsIcESaIcEEESt14default_deleteIS5_EE6_M_ptrEv
FNDA:0,_ZNSt15__uniq_ptr_implINSt7__cxx1118basic_stringstreamIcSt11char_traitsIcESaIcEEESt14default_deleteIS5_EE6_M_ptrEv
FNDA:20,_ZNKSt15__uniq_ptr_implIKN7testing16MatcherInterfaceIRKNSt7__cxx1112basic_stringIcSt11char_traitsIcESaIcEEEEESt14default_deleteISB_EE6_M_ptrEv
FNDA:0,_ZNKSt15__uniq_ptr_implINSt7__cxx1112basic_stringIcSt11char_traitsIcESaIcEEESt14default_deleteIS5_EE6_M_ptrEv
FNDA:0,_ZNKSt15__uniq_ptr_implINSt7__cxx1118basic_stringstreamIcSt11char_traitsIcESaIcEEESt14default_deleteIS5_EE6_M_ptrEv
FNDA:20,_ZNSt15__uniq_ptr_implIKN7testing16MatcherInterfaceIRKNSt7__cxx1112basic_stringIcSt11char_traitsIcESaIcEEEEESt14default_deleteISB_EE10_M_deleterEv
FNDA:0,_ZNSt15__uniq_ptr_implINSt7__cxx1112basic_stringIcSt11char_traitsIcESaIcEEESt14default_deleteIS5_EE10_M_deleterEv
FNDA:0,_ZNSt15__uniq_ptr_implINSt7__cxx1118basic_stringstreamIcSt11char_traitsIcESaIcEEESt14default_deleteIS5_EE10_M_deleterEv
FNDA:0,_ZNSt15__uniq_ptr_implINSt7__cxx1112basic_stringIcSt11char_traitsIcESaIcEEESt14default_deleteIS5_EE5resetEPS5_
FNDA:0,_ZNSt15__uniq_ptr_implINSt7__cxx1112basic_stringIcSt11char_traitsIcESaIcEEESt14default_deleteIS5_EE7releaseEv
FNDA:20,_ZNSt15__uniq_ptr_dataIKN7testing16MatcherInterfaceIRKNSt7__cxx1112basic_stringIcSt11char_traitsIcESaIcEEEEESt14default_deleteISB_ELb1ELb1EEC2EOSE_
FNDA:0,_ZNSt15__uniq_ptr_dataINSt7__cxx1112basic_stringIcSt11char_traitsIcESaIcEEESt14default_deleteIS5_ELb1ELb1EEaSEOS8_
FNDA:8,_ZNSt10unique_ptrINSt7__cxx1112basic_stringIcSt11char_traitsIcESaIcEEESt14default_deleteIS5_EEC2IS7_vEEv
FNDA:20,_ZNSt10unique_ptrIKN7testing16MatcherInterfaceIRKNSt7__cxx1112basic_stringIcSt11char_traitsIcESaIcEEEEESt14default_deleteISB_EEC2ISD_vEEPSB_
FNDA:0,_ZNSt10unique_ptrINSt7__cxx1112basic_stringIcSt11char_traitsIcESaIcEEESt14default_deleteIS5_EEC2IS7_vEEPS5_
FNDA:20,_ZNSt10unique_ptrIKN7testing16MatcherInterfaceIRKNSt7__cxx1112basic_stringIcSt11char_traitsIcESaIcEEEEESt14default_deleteISB_EEC2EOSE_
FNDA:40,_ZNSt10unique_ptrIKN7testing16MatcherInterfaceIRKNSt7__cxx1112basic_stringIcSt11char_traitsIcESaIcEEEEESt14default_deleteISB_EED2Ev
FNDA:100,_ZNSt10unique_ptrINSt7__cxx1112basic_stringIcSt11char_traitsIcESaIcEEESt14default_deleteIS5_EED2Ev
FNDA:0,_ZNSt10unique_ptrINSt7__cxx1118basic_stringstreamIcSt11char_traitsIcESaIcEEESt14default_deleteIS5_EED2Ev
FNDA:0,_ZNSt10unique_ptrINSt7__cxx1112basic_stringIcSt11char_traitsIcESaIcEEESt14default_deleteIS5_EEaSEOS8_
FNDA:20,_ZNKSt10unique_ptrIKN7testing16MatcherInterfaceIRKNSt7__cxx1112basic_stringIcSt11char_traitsIcESaIcEEEEESt14default_deleteISB_EEdeEv
FNDA:0,_ZNKSt10unique_ptrINSt7__cxx1118basic_stringstreamIcSt11char_traitsIcESaIcEEESt14default_deleteIS5_EEdeEv
FNDA:0,_ZNKSt10unique_ptrINSt7__cxx1112basic_stringIcSt11char_traitsIcESaIcEEESt14default_deleteIS5_EEptEv
FNDA:20,_ZNKSt10unique_ptrIKN7testing16MatcherInterfaceIRKNSt7__cxx1112basic_stringIcSt11char_traitsIcESaIcEEEEESt14default_deleteISB_EE3getEv
FNDA:0,_ZNKSt10unique_ptrINSt7__cxx1112basic_stringIcSt11char_traitsIcESaIcEEESt14default_deleteIS5_EE3getEv
FNDA:0,_ZNKSt10unique_ptrINSt7__cxx1118basic_stringstreamIcSt11char_traitsIcESaIcEEESt14default_deleteIS5_EE3getEv
FNDA:20,_ZNSt10unique_ptrIKN7testing16MatcherInterfaceIRKNSt7__cxx1112basic_stringIcSt11char_traitsIcESaIcEEEEESt14default_deleteISB_EE11get_deleterEv
FNDA:0,_ZNSt10unique_ptrINSt7__cxx1112basic_stringIcSt11char_traitsIcESaIcEEESt14default_deleteIS5_EE11get_deleterEv
FNDA:0,_ZNSt10unique_ptrINSt7__cxx1118basic_stringstreamIcSt11char_traitsIcESaIcEEESt14default_deleteIS5_EE11get_deleterEv
FNDA:0,_ZNKSt10unique_ptrINSt7__cxx1112basic_stringIcSt11char_traitsIcESaIcEEESt14default_deleteIS5_EEcvbEv
FNDA:0,_ZSteqINSt7__cxx1112basic_stringIcSt11char_traitsIcESaIcEEESt14default_deleteIS5_EEbRKSt10unique_ptrIT_T0_EDn
FNDA:20,_ZNKSt14default_deleteIKN7testing16MatcherInterfaceIRKNSt7__cxx1112basic_stringIcSt11char_traitsIcESaIcEEEEEEclEPSB_
FNDA:0,_ZNKSt14default_deleteINSt7__cxx1112basic_stringIcSt11char_traitsIcESaIcEEEEclEPS5_
FNDA:0,_ZNKSt14default_deleteINSt7__cxx1118basic_stringstreamIcSt11char_traitsIcESaIcEEEEclEPS5_
FNF:41
FNH:17
BRDA:93,0,0,20
BRDA:93,0,1,0
BRDA:204,0,0,-
BRDA:204,0,1,-
BRDA:397,0,0,20
BRDA:397,0,1,120
BRDA:447,0,0,0
BRDA:447,0,1,20
BRDA:447,0,2,0
BRDA:447,0,3,0
BRF:10
BRH:4
DA:87,20
DA:93,20
DA:94,20
DA:168,8
DA:170,20
DA:178,20
DA:179,20
DA:180,20
DA:183,0
DA:185,0
DA:186,0
DA:187,0
DA:191,180
DA:193,20
DA:195,20
DA:200,0
DA:202,0
DA:203,0
DA:204,0
DA:205,0
DA:206,0
DA:209,0
DA:211,0
DA:212,0
DA:213,0
DA:236,20
DA:237,0
DA:298,8
DA:299,8
DA:300,8
DA:311,20
DA:312,20
DA:313,20
DA:360,20
DA:392,140
DA:396,140
DA:397,140
DA:398,20
DA:399,140
DA:400,140
DA:408,0
DA:445,20
DA:447,20
DA:448,20
DA:454,0
DA:457,0
DA:463,20
DA:464,20
DA:469,20
DA:470,20
DA:480,0
DA:481,0
DA:845,0
DA:846,0
DA:1075,0
DA:1076,0
LF:56
LH:32
end_of_record
TN:
SF:/usr/include/c++/14/cmath
FN:1074,1078,_ZSt3powIiiEN9__gnu_cxx11__promote_2IDTplcvNS1_IT_XsrSt12__is_integerIS2_E7__valueEE6__typeELi0EcvNS1_IT0_XsrS3_IS7_E7__valueEE6__typeELi0EEXsrS3_ISB_E7__valueEE6__typeES2_S7_
FNDA:1,_ZSt3powIiiEN9__gnu_cxx11__promote_2IDTplcvNS1_IT_XsrSt12__is_integerIS2_E7__valueEE6__typeELi0EcvNS1_IT0_XsrS3_IS7_E7__valueEE6__typeELi0EEXsrS3_ISB_E7__valueEE6__typeES2_S7_
FNF:1
FNH:1
DA:1074,1
DA:1077,1
LF:2
LH:2
end_of_record
TN:
SF:/usr/include/c++/14/compare
FN:291,292,_ZStltSt15strong_orderingNSt9__cmp_cat8__unspecE
FN:296,297,_ZStgtSt15strong_orderingNSt9__cmp_cat8__unspecE
FNDA:2,_ZStltSt15strong_orderingNSt9__cmp_cat8__unspecE
FNDA:1,_ZStgtSt15strong_orderingNSt9__cmp_cat8__unspecE
FNF:2
FNH:2
DA:291,2
DA:292,2
DA:296,1
DA:297,1
LF:4
LH:4
end_of_record
TN:
SF:/usr/include/c++/14/ext/alloc_traits.h
FNF:0
FNH:0
DA:98,233
DA:106,38
DA:118,0
LF:3
LH:2
end_of_record
TN:
SF:/usr/include/c++/14/ext/atomicity.h
FNF:0
FNH:0
BRDA:98,0,0,0
BRDA:98,0,1,0
BRDA:98,0,2,12
BRDA:98,0,3,0
BRDA:108,0,0,12
BRDA:108,0,1,0
BRF:6
BRH:2
DA:52,24
DA:66,0
DA:71,0
DA:84,12
DA:85,12
DA:86,12
DA:92,12
DA:98,12
DA:99,12
DA:101,0
DA:108,12
DA:112,12
LF:12
LH:9
end_of_record
TN:
SF:/usr/include/c++/14/initializer_list
FN:69,69,_ZNKSt16initializer_listINSt7__cxx1112basic_stringIcSt11char_traitsIcESaIcEEEE4sizeEv
FN:73,73,_ZNKSt16initializer_listINSt7__cxx1112basic_stringIcSt11char_traitsIcESaIcEEEE5beginEv
FN:77,77,_ZNKSt16initializer_listINSt7__cxx1112basic_stringIcSt11char_traitsIcESaIcEEEE3endEv
FNDA:2,_ZNKSt16initializer_listINSt7__cxx1112basic_stringIcSt11char_traitsIcESaIcEEEE4sizeEv
FNDA:2,_ZNKSt16initializer_listINSt7__cxx1112basic_stringIcSt11char_traitsIcESaIcEEEE5beginEv
FNDA:1,_ZNKSt16initializer_listINSt7__cxx1112basic_stringIcSt11char_traitsIcESaIcEEEE3endEv
FNF:3
FNH:3
DA:69,2
DA:73,2
DA:77,1
LF:3
LH:3
end_of_record
TN:
SF:/usr/include/c++/14/new
FN:179,180,_ZnwmPv
FNDA:0,_ZnwmPv
FNF:1
FNH:0
DA:179,0
DA:180,0
LF:2
LH:0
end_of_record
TN:
SF:/usr/include/c++/14/tuple
FN:133,133,_ZNSt10_Head_baseILm1ESt14default_deleteIKN7testing16MatcherInterfaceIRKNSt7__cxx1112basic_stringIcSt11char_traitsIcESaIcEEEEEELb1EE7_M_headERSE_
FN:133,133,_ZNSt10_Head_baseILm1ESt14default_deleteINSt7__cxx1112basic_stringIcSt11char_traitsIcESaIcEEEELb1EE7_M_headERS8_
FN:133,133,_ZNSt10_Head_baseILm1ESt14default_deleteINSt7__cxx1118basic_stringstreamIcSt11char_traitsIcESaIcEEEELb1EE7_M_headERS8_
FN:198,199,_ZNSt10_Head_baseILm0EPKN7testing16MatcherInterfaceIRKNSt7__cxx1112basic_stringIcSt11char_traitsIcESaIcEEEEELb0EEC2Ev
FN:198,199,_ZNSt10_Head_baseILm0EPNSt7__cxx1112basic_stringIcSt11char_traitsIcESaIcEEELb0EEC2Ev
FN:208,209,_ZNSt10_Head_baseILm0EPKN7testing8internal11MatcherBaseIRKNSt7__cxx1112basic_stringIcSt11char_traitsIcESaIcEEEEELb0EEC2ISD_EEOT_
FN:208,209,_ZNSt10_Head_baseILm1EPKN7testing16MatcherInterfaceIRKNSt7__cxx1112basic_stringIcSt11char_traitsIcESaIcEEEEELb0EEC2ISC_EEOT_
FN:242,242,_ZNSt10_Head_baseILm0EPKN7testing16MatcherInterfaceIRKNSt7__cxx1112basic_stringIcSt11char_traitsIcESaIcEEEEELb0EE7_M_headERSD_
FN:242,242,_ZNSt10_Head_baseILm0EPNSt7__cxx1112basic_stringIcSt11char_traitsIcESaIcEEELb0EE7_M_headERS7_
FN:242,242,_ZNSt10_Head_baseILm0EPNSt7__cxx1118basic_stringstreamIcSt11char_traitsIcESaIcEEELb0EE7_M_headERS7_
FN:242,242,_ZNSt10_Head_baseILm1EPKN7testing16MatcherInterfaceIRKNSt7__cxx1112basic_stringIcSt11char_traitsIcESaIcEEEEELb0EE7_M_headERSD_
FN:2427,2428,_ZSt12__get_helperILm0EPKN7testing16MatcherInterfaceIRKNSt7__cxx1112basic_stringIcSt11char_traitsIcESaIcEEEEEJSt14default_deleteISB_EEERT0_RSt11_Tuple_implIXT_EJSF_DpT1_EE
FN:2427,2428,_ZSt12__get_helperILm0EPNSt7__cxx1112basic_stringIcSt11char_traitsIcESaIcEEEJSt14default_deleteIS5_EEERT0_RSt11_Tuple_implIXT_EJS9_DpT1_EE
FN:2427,2428,_ZSt12__get_helperILm0EPNSt7__cxx1118basic_stringstreamIcSt11char_traitsIcESaIcEEEJSt14default_deleteIS5_EEERT0_RSt11_Tuple_implIXT_EJS9_DpT1_EE
FN:2427,2428,_ZSt12__get_helperILm1EPKN7testing16MatcherInterfaceIRKNSt7__cxx1112basic_stringIcSt11char_traitsIcESaIcEEEEEJEERT0_RSt11_Tuple_implIXT_EJSD_DpT1_EE
FN:2427,2428,_ZSt12__get_helperILm1ESt14default_deleteIKN7testing16MatcherInterfaceIRKNSt7__cxx1112basic_stringIcSt11char_traitsIcESaIcEEEEEEJEERT0_RSt11_Tuple_implIXT_EJSE_DpT1_EE
FN:2427,2428,_ZSt12__get_helperILm1ESt14default_deleteINSt7__cxx1112basic_stringIcSt11char_traitsIcESaIcEEEEJEERT0_RSt11_Tuple_implIXT_EJS8_DpT1_EE
FN:2427,2428,_ZSt12__get_helperILm1ESt14default_deleteINSt7__cxx1118basic_stringstreamIcSt11char_traitsIcESaIcEEEEJEERT0_RSt11_Tuple_implIXT_EJS8_DpT1_EE
FN:2432,2433,_ZSt12__get_helperILm0EPKN7testing16MatcherInterfaceIRKNSt7__cxx1112basic_stringIcSt11char_traitsIcESaIcEEEEEJSt14default_deleteISB_EEERKT0_RKSt11_Tuple_implIXT_EJSF_DpT1_EE
FN:2432,2433,_ZSt12__get_helperILm0EPNSt7__cxx1112basic_stringIcSt11char_traitsIcESaIcEEEJSt14default_deleteIS5_EEERKT0_RKSt11_Tuple_implIXT_EJS9_DpT1_EE
FN:2432,2433,_ZSt12__get_helperILm0EPNSt7__cxx1118basic_stringstreamIcSt11char_traitsIcESaIcEEEJSt14default_deleteIS5_EEERKT0_RKSt11_Tuple_implIXT_EJS9_DpT1_EE
FN:2443,2444,_ZSt3getILm0EJPKN7testing16MatcherInterfaceIRKNSt7__cxx1112basic_stringIcSt11char_traitsIcESaIcEEEEESt14default_deleteISB_EEERNSt13tuple_elementIXT_ESt5tupleIJDpT0_EEE4typeERSJ_
FN:2443,2444,_ZSt3getILm0EJPNSt7__cxx1112basic_stringIcSt11char_traitsIcESaIcEEESt14default_deleteIS5_EEERNSt13tuple_elementIXT_ESt5tupleIJDpT0_EEE4typeERSD_
FN:2443,2444,_ZSt3getILm0EJPNSt7__cxx1118basic_stringstreamIcSt11char_traitsIcESaIcEEESt14default_deleteIS5_EEERNSt13tuple_elementIXT_ESt5tupleIJDpT0_EEE4typeERSD_
FN:2443,2444,_ZSt3getILm1EJPKN7testing16MatcherInterfaceIRKNSt7__cxx1112basic_stringIcSt11char_traitsIcESaIcEEEEESt14default_deleteISB_EEERNSt13tuple_elementIXT_ESt5tupleIJDpT0_EEE4typeERSJ_
FN:2443,2444,_ZSt3getILm1EJPNSt7__cxx1112basic_stringIcSt11char_traitsIcESaIcEEESt14default_deleteIS5_EEERNSt13tuple_elementIXT_ESt5tupleIJDpT0_EEE4typeERSD_
FN:2443,2444,_ZSt3getILm1EJPNSt7__cxx1118basic_stringstreamIcSt11char_traitsIcESaIcEEESt14default_deleteIS5_EEERNSt13tuple_elementIXT_ESt5tupleIJDpT0_EEE4typeERSD_
FN:2449,2450,_ZSt3getILm0EJPKN7testing16MatcherInterfaceIRKNSt7__cxx1112basic_stringIcSt11char_traitsIcESaIcEEEEESt14default_deleteISB_EEERKNSt13tuple_elementIXT_ESt5tupleIJDpT0_EEE4typeERKSJ_
FN:2449,2450,_ZSt3getILm0EJPNSt7__cxx1112basic_stringIcSt11char_traitsIcESaIcEEESt14default_deleteIS5_EEERKNSt13tuple_elementIXT_ESt5tupleIJDpT0_EEE4typeERKSD_
FN:2449,2450,_ZSt3getILm0EJPNSt7__cxx1118basic_stringstreamIcSt11char_traitsIcESaIcEEESt14default_deleteIS5_EEERKNSt13tuple_elementIXT_ESt5tupleIJDpT0_EEE4typeERKSD_
FN:245,245,_ZNSt10_Head_baseILm0EPKN7testing16MatcherInterfaceIRKNSt7__cxx1112basic_stringIcSt11char_traitsIcESaIcEEEEELb0EE7_M_headERKSD_
FN:245,245,_ZNSt10_Head_baseILm0EPNSt7__cxx1112basic_stringIcSt11char_traitsIcESaIcEEELb0EE7_M_headERKS7_
FN:245,245,_ZNSt10_Head_baseILm0EPNSt7__cxx1118basic_stringstreamIcSt11char_traitsIcESaIcEEELb0EE7_M_headERKS7_
FN:2455,2459,_ZSt3getILm1EJPKN7testing8internal11MatcherBaseIRKNSt7__cxx1112basic_stringIcSt11char_traitsIcESaIcEEEEEPKNS0_16MatcherInterfaceISA_EEEEONSt13tuple_elementIXT_ESt5tupleIJDpT0_EEE4typeEOSM_
FN:2638,2643,_ZSt10make_tupleIJPKN7testing8internal11MatcherBaseIRKNSt7__cxx1112basic_stringIcSt11char_traitsIcESaIcEEEEEPKNS0_16MatcherInterfaceISA_EEEESt5tupleIJDpNSt25__strip_reference_wrapperINSt5decayIT_E4typeEE6__typeEEEDpOSL_
FN:293,293,_ZNSt11_Tuple_implILm0EJPKN7testing16MatcherInterfaceIRKNSt7__cxx1112basic_stringIcSt11char_traitsIcESaIcEEEEESt14default_deleteISB_EEE7_M_headERSF_
FN:293,293,_ZNSt11_Tuple_implILm0EJPNSt7__cxx1112basic_stringIcSt11char_traitsIcESaIcEEESt14default_deleteIS5_EEE7_M_headERS9_
FN:293,293,_ZNSt11_Tuple_implILm0EJPNSt7__cxx1118basic_stringstreamIcSt11char_traitsIcESaIcEEESt14default_deleteIS5_EEE7_M_headERS9_
FN:296,296,_ZNSt11_Tuple_implILm0EJPKN7testing16MatcherInterfaceIRKNSt7__cxx1112basic_stringIcSt11char_traitsIcESaIcEEEEESt14default_deleteISB_EEE7_M_headERKSF_
FN:296,296,_ZNSt11_Tuple_implILm0EJPNSt7__cxx1112basic_stringIcSt11char_traitsIcESaIcEEESt14default_deleteIS5_EEE7_M_headERKS9_
FN:296,296,_ZNSt11_Tuple_implILm0EJPNSt7__cxx1118basic_stringstreamIcSt11char_traitsIcESaIcEEESt14default_deleteIS5_EEE7_M_headERKS9_
FN:304,305,_ZNSt11_Tuple_implILm0EJPKN7testing16MatcherInterfaceIRKNSt7__cxx1112basic_stringIcSt11char_traitsIcESaIcEEEEESt14default_deleteISB_EEEC2Ev
FN:304,305,_ZNSt11_Tuple_implILm0EJPNSt7__cxx1112basic_stringIcSt11char_traitsIcESaIcEEESt14default_deleteIS5_EEEC2Ev
FN:315,318,_ZNSt11_Tuple_implILm0EJPKN7testing8internal11MatcherBaseIRKNSt7__cxx1112basic_stringIcSt11char_traitsIcESaIcEEEEEPKNS0_16MatcherInterfaceISA_EEEEC2ISD_JSH_EvEEOT_DpOT0_
FN:326,326,_ZNSt11_Tuple_implILm0EJPKN7testing16MatcherInterfaceIRKNSt7__cxx1112basic_stringIcSt11char_traitsIcESaIcEEEEESt14default_deleteISB_EEEC2EOSF_
FN:556,556,_ZNSt11_Tuple_implILm1EJPKN7testing16MatcherInterfaceIRKNSt7__cxx1112basic_stringIcSt11char_traitsIcESaIcEEEEEEE7_M_headERSD_
FN:556,556,_ZNSt11_Tuple_implILm1EJSt14default_deleteIKN7testing16MatcherInterfaceIRKNSt7__cxx1112basic_stringIcSt11char_traitsIcESaIcEEEEEEEE7_M_headERSE_
FN:556,556,_ZNSt11_Tuple_implILm1EJSt14default_deleteINSt7__cxx1112basic_stringIcSt11char_traitsIcESaIcEEEEEE7_M_headERS8_
FN:556,556,_ZNSt11_Tuple_implILm1EJSt14default_deleteINSt7__cxx1118basic_stringstreamIcSt11char_traitsIcESaIcEEEEEE7_M_headERS8_
FN:562,563,_ZNSt11_Tuple_implILm1EJSt14default_deleteIKN7testing16MatcherInterfaceIRKNSt7__cxx1112basic_stringIcSt11char_traitsIcESaIcEEEEEEEEC2Ev
FN:562,563,_ZNSt11_Tuple_implILm1EJSt14default_deleteINSt7__cxx1112basic_stringIcSt11char_traitsIcESaIcEEEEEEC2Ev
FN:572,574,_ZNSt11_Tuple_implILm1EJPKN7testing16MatcherInterfaceIRKNSt7__cxx1112basic_stringIcSt11char_traitsIcESaIcEEEEEEEC2ISC_EEOT_
FN:586,589,_ZNSt11_Tuple_implILm1EJSt14default_deleteIKN7testing16MatcherInterfaceIRKNSt7__cxx1112basic_stringIcSt11char_traitsIcESaIcEEEEEEEEC2EOSE_
FN:89,90,_ZNSt10_Head_baseILm1ESt14default_deleteIKN7testing16MatcherInterfaceIRKNSt7__cxx1112basic_stringIcSt11char_traitsIcESaIcEEEEEELb1EEC2Ev
FN:89,90,_ZNSt10_Head_baseILm1ESt14default_deleteINSt7__cxx1112basic_stringIcSt11char_traitsIcESaIcEEEELb1EEC2Ev
FN:964,968,_ZNSt5tupleIJPKN7testing16MatcherInterfaceIRKNSt7__cxx1112basic_stringIcSt11char_traitsIcESaIcEEEEESt14default_deleteISB_EEEC2EvQfraa26is_default_constructible_vIT_E
FN:964,968,_ZNSt5tupleIJPNSt7__cxx1112basic_stringIcSt11char_traitsIcESaIcEEESt14default_deleteIS5_EEEC2EvQfraa26is_default_constructible_vIT_E
FN:982,985,_ZNSt5tupleIJPKN7testing8internal11MatcherBaseIRKNSt7__cxx1112basic_stringIcSt11char_traitsIcESaIcEEEEEPKNS0_16MatcherInterfaceISA_EEEEC2IJSD_SH_EEEDpOT_
FN:995,995,_ZNSt5tupleIJPKN7testing16MatcherInterfaceIRKNSt7__cxx1112basic_stringIcSt11char_traitsIcESaIcEEEEESt14default_deleteISB_EEEC2EOSF_
FNDA:20,_ZNSt10_Head_baseILm1ESt14default_deleteIKN7testing16MatcherInterfaceIRKNSt7__cxx1112basic_stringIcSt11char_traitsIcESaIcEEEEEELb1EE7_M_headERSE_
FNDA:0,_ZNSt10_Head_baseILm1ESt14default_deleteINSt7__cxx1112basic_stringIcSt11char_traitsIcESaIcEEEELb1EE7_M_headERS8_
FNDA:0,_ZNSt10_Head_baseILm1ESt14default_deleteINSt7__cxx1118basic_stringstreamIcSt11char_traitsIcESaIcEEEELb1EE7_M_headERS8_
FNDA:20,_ZNSt10_Head_baseILm0EPKN7testing16MatcherInterfaceIRKNSt7__cxx1112basic_stringIcSt11char_traitsIcESaIcEEEEELb0EEC2Ev
FNDA:8,_ZNSt10_Head_baseILm0EPNSt7__cxx1112basic_stringIcSt11char_traitsIcESaIcEEELb0EEC2Ev
FNDA:0,_ZNSt10_Head_baseILm0EPKN7testing8internal11MatcherBaseIRKNSt7__cxx1112basic_stringIcSt11char_traitsIcESaIcEEEEELb0EEC2ISD_EEOT_
FNDA:0,_ZNSt10_Head_baseILm1EPKN7testing16MatcherInterfaceIRKNSt7__cxx1112basic_stringIcSt11char_traitsIcESaIcEEEEELb0EEC2ISC_EEOT_
FNDA:80,_ZNSt10_Head_baseILm0EPKN7testing16MatcherInterfaceIRKNSt7__cxx1112basic_stringIcSt11char_traitsIcESaIcEEEEELb0EE7_M_headERSD_
FNDA:100,_ZNSt10_Head_baseILm0EPNSt7__cxx1112basic_stringIcSt11char_traitsIcESaIcEEELb0EE7_M_headERS7_
FNDA:0,_ZNSt10_Head_baseILm0EPNSt7__cxx1118basic_stringstreamIcSt11char_traitsIcESaIcEEELb0EE7_M_headERS7_
FNDA:0,_ZNSt10_Head_baseILm1EPKN7testing16MatcherInterfaceIRKNSt7__cxx1112basic_stringIcSt11char_traitsIcESaIcEEEEELb0EE7_M_headERSD_
FNDA:80,_ZSt12__get_helperILm0EPKN7testing16MatcherInterfaceIRKNSt7__cxx1112basic_stringIcSt11char_traitsIcESaIcEEEEEJSt14default_deleteISB_EEERT0_RSt11_Tuple_implIXT_EJSF_DpT1_EE
FNDA:100,_ZSt12__get_helperILm0EPNSt7__cxx1112basic_stringIcSt11char_traitsIcESaIcEEEJSt14default_deleteIS5_EEERT0_RSt11_Tuple_implIXT_EJS9_DpT1_EE
FNDA:0,_ZSt12__get_helperILm0EPNSt7__cxx1118basic_stringstreamIcSt11char_traitsIcESaIcEEEJSt14default_deleteIS5_EEERT0_RSt11_Tuple_implIXT_EJS9_DpT1_EE
FNDA:0,_ZSt12__get_helperILm1EPKN7testing16MatcherInterfaceIRKNSt7__cxx1112basic_stringIcSt11char_traitsIcESaIcEEEEEJEERT0_RSt11_Tuple_implIXT_EJSD_DpT1_EE
FNDA:20,_ZSt12__get_helperILm1ESt14default_deleteIKN7testing16MatcherInterfaceIRKNSt7__cxx1112basic_stringIcSt11char_traitsIcESaIcEEEEEEJEERT0_RSt11_Tuple_implIXT_EJSE_DpT1_EE
FNDA:0,_ZSt12__get_helperILm1ESt14default_deleteINSt7__cxx1112basic_stringIcSt11char_traitsIcESaIcEEEEJEERT0_RSt11_Tuple_implIXT_EJS8_DpT1_EE
FNDA:0,_ZSt12__get_helperILm1ESt14default_deleteINSt7__cxx1118basic_stringstreamIcSt11char_traitsIcESaIcEEEEJEERT0_RSt11_Tuple_implIXT_EJS8_DpT1_EE
FNDA:20,_ZSt12__get_helperILm0EPKN7testing16MatcherInterfaceIRKNSt7__cxx1112basic_stringIcSt11char_traitsIcESaIcEEEEEJSt14default_deleteISB_EEERKT0_RKSt11_Tuple_implIXT_EJSF_DpT1_EE
FNDA:0,_ZSt12__get_helperILm0EPNSt7__cxx1112basic_stringIcSt11char_traitsIcESaIcEEEJSt14default_deleteIS5_EEERKT0_RKSt11_Tuple_implIXT_EJS9_DpT1_EE
FNDA:0,_ZSt12__get_helperILm0EPNSt7__cxx1118basic_stringstreamIcSt11char_traitsIcESaIcEEEJSt14default_deleteIS5_EEERKT0_RKSt11_Tuple_implIXT_EJS9_DpT1_EE
FNDA:80,_ZSt3getILm0EJPKN7testing16MatcherInterfaceIRKNSt7__cxx1112basic_stringIcSt11char_traitsIcESaIcEEEEESt14default_deleteISB_EEERNSt13tuple_elementIXT_ESt5tupleIJDpT0_EEE4typeERSJ_
FNDA:100,_ZSt3getILm0EJPNSt7__cxx1112basic_stringIcSt11char_traitsIcESaIcEEESt14default_deleteIS5_EEERNSt13tuple_elementIXT_ESt5tupleIJDpT0_EEE4typeERSD_
FNDA:0,_ZSt3getILm0EJPNSt7__cxx1118basic_stringstreamIcSt11char_traitsIcESaIcEEESt14default_deleteIS5_EEERNSt13tuple_elementIXT_ESt5tupleIJDpT0_EEE4typeERSD_
FNDA:20,_ZSt3getILm1EJPKN7testing16MatcherInterfaceIRKNSt7__cxx1112basic_stringIcSt11char_traitsIcESaIcEEEEESt14default_deleteISB_EEERNSt13tuple_elementIXT_ESt5tupleIJDpT0_EEE4typeERSJ_
FNDA:0,_ZSt3getILm1EJPNSt7__cxx1112basic_stringIcSt11char_traitsIcESaIcEEESt14default_deleteIS5_EEERNSt13tuple_elementIXT_ESt5tupleIJDpT0_EEE4typeERSD_
FNDA:0,_ZSt3getILm1EJPNSt7__cxx1118basic_stringstreamIcSt11char_traitsIcESaIcEEESt14default_deleteIS5_EEERNSt13tuple_elementIXT_ESt5tupleIJDpT0_EEE4typeERSD_
FNDA:20,_ZSt3getILm0EJPKN7testing16MatcherInterfaceIRKNSt7__cxx1112basic_stringIcSt11char_traitsIcESaIcEEEEESt14default_deleteISB_EEERKNSt13tuple_elementIXT_ESt5tupleIJDpT0_EEE4typeERKSJ_
FNDA:0,_ZSt3getILm0EJPNSt7__cxx1112basic_stringIcSt11char_traitsIcESaIcEEESt14default_deleteIS5_EEERKNSt13tuple_elementIXT_ESt5tupleIJDpT0_EEE4typeERKSD_
FNDA:0,_ZSt3getILm0EJPNSt7__cxx1118basic_stringstreamIcSt11char_traitsIcESaIcEEESt14default_deleteIS5_EEERKNSt13tuple_elementIXT_ESt5tupleIJDpT0_EEE4typeERKSD_
FNDA:20,_ZNSt10_Head_baseILm0EPKN7testing16MatcherInterfaceIRKNSt7__cxx1112basic_stringIcSt11char_traitsIcESaIcEEEEELb0EE7_M_headERKSD_
FNDA:0,_ZNSt10_Head_baseILm0EPNSt7__cxx1112basic_stringIcSt11char_traitsIcESaIcEEELb0EE7_M_headERKS7_
FNDA:0,_ZNSt10_Head_baseILm0EPNSt7__cxx1118basic_stringstreamIcSt11char_traitsIcESaIcEEELb0EE7_M_headERKS7_
FNDA:0,_ZSt3getILm1EJPKN7testing8internal11MatcherBaseIRKNSt7__cxx1112basic_stringIcSt11char_traitsIcESaIcEEEEEPKNS0_16MatcherInterfaceISA_EEEEONSt13tuple_elementIXT_ESt5tupleIJDpT0_EEE4typeEOSM_
FNDA:0,_ZSt10make_tupleIJPKN7testing8internal11MatcherBaseIRKNSt7__cxx1112basic_stringIcSt11char_traitsIcESaIcEEEEEPKNS0_16MatcherInterfaceISA_EEEESt5tupleIJDpNSt25__strip_reference_wrapperINSt5decayIT_E4typeEE6__typeEEEDpOSL_
FNDA:80,_ZNSt11_Tuple_implILm0EJPKN7testing16MatcherInterfaceIRKNSt7__cxx1112basic_stringIcSt11char_traitsIcESaIcEEEEESt14default_deleteISB_EEE7_M_headERSF_
FNDA:100,_ZNSt11_Tuple_implILm0EJPNSt7__cxx1112basic_stringIcSt11char_traitsIcESaIcEEESt14default_deleteIS5_EEE7_M_headERS9_
FNDA:0,_ZNSt11_Tuple_implILm0EJPNSt7__cxx1118basic_stringstreamIcSt11char_traitsIcESaIcEEESt14default_deleteIS5_EEE7_M_headERS9_
FNDA:20,_ZNSt11_Tuple_implILm0EJPKN7testing16MatcherInterfaceIRKNSt7__cxx1112basic_stringIcSt11char_traitsIcESaIcEEEEESt14default_deleteISB_EEE7_M_headERKSF_
FNDA:0,_ZNSt11_Tuple_implILm0EJPNSt7__cxx1112basic_stringIcSt11char_traitsIcESaIcEEESt14default_deleteIS5_EEE7_M_headERKS9_
FNDA:0,_ZNSt11_Tuple_implILm0EJPNSt7__cxx1118basic_stringstreamIcSt11char_traitsIcESaIcEEESt14default_deleteIS5_EEE7_M_headERKS9_
FNDA:20,_ZNSt11_Tuple_implILm0EJPKN7testing16MatcherInterfaceIRKNSt7__cxx1112basic_stringIcSt11char_traitsIcESaIcEEEEESt14default_deleteISB_EEEC2Ev
FNDA:8,_ZNSt11_Tuple_implILm0EJPNSt7__cxx1112basic_stringIcSt11char_traitsIcESaIcEEESt14default_deleteIS5_EEEC2Ev
FNDA:0,_ZNSt11_Tuple_implILm0EJPKN7testing8internal11MatcherBaseIRKNSt7__cxx1112basic_stringIcSt11char_traitsIcESaIcEEEEEPKNS0_16MatcherInterfaceISA_EEEEC2ISD_JSH_EvEEOT_DpOT0_
FNDA:20,_ZNSt11_Tuple_implILm0EJPKN7testing16MatcherInterfaceIRKNSt7__cxx1112basic_stringIcSt11char_traitsIcESaIcEEEEESt14default_deleteISB_EEEC2EOSF_
FNDA:0,_ZNSt11_Tuple_implILm1EJPKN7testing16MatcherInterfaceIRKNSt7__cxx1112basic_stringIcSt11char_traitsIcESaIcEEEEEEE7_M_headERSD_
FNDA:20,_ZNSt11_Tuple_implILm1EJSt14default_deleteIKN7testing16MatcherInterfaceIRKNSt7__cxx1112basic_stringIcSt11char_traitsIcESaIcEEEEEEEE7_M_headERSE_
FNDA:0,_ZNSt11_Tuple_implILm1EJSt14default_deleteINSt7__cxx1112basic_stringIcSt11char_traitsIcESaIcEEEEEE7_M_headERS8_
FNDA:0,_ZNSt11_Tuple_implILm1EJSt14default_deleteINSt7__cxx1118basic_stringstreamIcSt11char_traitsIcESaIcEEEEEE7_M_headERS8_
FNDA:20,_ZNSt11_Tuple_implILm1EJSt14default_deleteIKN7testing16MatcherInterfaceIRKNSt7__cxx1112basic_stringIcSt11char_traitsIcESaIcEEEEEEEEC2Ev
FNDA:8,_ZNSt11_Tuple_implILm1EJSt14default_deleteINSt7__cxx1112basic_stringIcSt11char_traitsIcESaIcEEEEEEC2Ev
FNDA:0,_ZNSt11_Tuple_implILm1EJPKN7testing16MatcherInterfaceIRKNSt7__cxx1112basic_stringIcSt11char_traitsIcESaIcEEEEEEEC2ISC_EEOT_
FNDA:20,_ZNSt11_Tuple_implILm1EJSt14default_deleteIKN7testing16MatcherInterfaceIRKNSt7__cxx1112basic_stringIcSt11char_traitsIcESaIcEEEEEEEEC2EOSE_
FNDA:20,_ZNSt10_Head_baseILm1ESt14default_deleteIKN7testing16MatcherInterfaceIRKNSt7__cxx1112basic_stringIcSt11char_traitsIcESaIcEEEEEELb1EEC2Ev
FNDA:8,_ZNSt10_Head_baseILm1ESt14default_deleteINSt7__cxx1112basic_stringIcSt11char_traitsIcESaIcEEEELb1EEC2Ev
FNDA:20,_ZNSt5tupleIJPKN7testing16MatcherInterfaceIRKNSt7__cxx1112basic_stringIcSt11char_traitsIcESaIcEEEEESt14default_deleteISB_EEEC2EvQfraa26is_default_constructible_vIT_E
FNDA:8,_ZNSt5tupleIJPNSt7__cxx1112basic_stringIcSt11char_traitsIcESaIcEEESt14default_deleteIS5_EEEC2EvQfraa26is_default_constructible_vIT_E
FNDA:0,_ZNSt5tupleIJPKN7testing8internal11MatcherBaseIRKNSt7__cxx1112basic_stringIcSt11char_traitsIcESaIcEEEEEPKNS0_16MatcherInterfaceISA_EEEEC2IJSD_SH_EEEDpOT_
FNDA:20,_ZNSt5tupleIJPKN7testing16MatcherInterfaceIRKNSt7__cxx1112basic_stringIcSt11char_traitsIcESaIcEEEEESt14default_deleteISB_EEEC2EOSF_
FNF:59
FNH:29
DA:89,28
DA:90,28
DA:133,20
DA:198,28
DA:199,28
DA:208,0
DA:209,0
DA:242,180
DA:245,20
DA:293,180
DA:296,20
DA:304,28
DA:305,28
DA:315,0
DA:317,0
DA:318,0
DA:326,20
DA:556,20
DA:562,28
DA:563,28
DA:572,0
DA:573,0
DA:574,0
DA:586,20
DA:589,20
DA:964,28
DA:967,28
DA:968,28
DA:982,0
DA:984,0
DA:985,0
DA:995,20
DA:2427,200
DA:2428,200
DA:2432,20
DA:2433,20
DA:2443,200
DA:2444,200
DA:2449,20
DA:2450,20
DA:2455,0
DA:2458,0
DA:2638,0
DA:2642,0
LF:44
LH:29
end_of_record
TN:
SF:/usr/include/c++/14/type_traits
FN:3817,3824,_ZSt21is_constant_evaluatedv
FNDA:769,_ZSt21is_constant_evaluatedv
FNF:1
FNH:1
DA:3817,769
DA:3822,769
LF:2
LH:2
end_of_record
TN:
SF:/usr/include/c++/14/typeinfo
FN:102,103,_ZNKSt9type_info4nameEv
FNDA:0,_ZNKSt9type_info4nameEv
FNF:1
FNH:0
BRDA:103,0,0,-
BRDA:103,0,1,-
BRF:2
BRH:0
DA:102,0
DA:103,0
LF:2
LH:0
end_of_record
TN:
SF:/usr/include/gmock/gmock-matchers.h
FN:1002,1005,_ZNK7testing8internal16HasSubstrMatcherINSt7__cxx1112basic_stringIcSt11char_traitsIcESaIcEEEE10DescribeToEPSo
FN:1007,1010,_ZNK7testing8internal16HasSubstrMatcherINSt7__cxx1112basic_stringIcSt11char_traitsIcESaIcEEEE18DescribeNegationToEPSo
FN:1022,1022,_ZN7testing8internal17StartsWithMatcherINSt7__cxx1112basic_stringIcSt11char_traitsIcESaIcEEEEC2ERKS7_
FN:1049,1054,_ZNK7testing8internal17StartsWithMatcherINSt7__cxx1112basic_stringIcSt11char_traitsIcESaIcEEEE15MatchAndExplainIS7_EEbRKT_PNS_19MatchResultListenerE
FN:1056,1059,_ZNK7testing8internal17StartsWithMatcherINSt7__cxx1112basic_stringIcSt11char_traitsIcESaIcEEEE10DescribeToEPSo
FN:1061,1064,_ZNK7testing8internal17StartsWithMatcherINSt7__cxx1112basic_stringIcSt11char_traitsIcESaIcEEEE18DescribeNegationToEPSo
FN:1076,1076,_ZN7testing8internal15EndsWithMatcherINSt7__cxx1112basic_stringIcSt11char_traitsIcESaIcEEEEC2ERKS7_
FN:1103,1108,_ZNK7testing8internal15EndsWithMatcherINSt7__cxx1112basic_stringIcSt11char_traitsIcESaIcEEEE15MatchAndExplainIS7_EEbRKT_PNS_19MatchResultListenerE
FN:1110,1113,_ZNK7testing8internal15EndsWithMatcherINSt7__cxx1112basic_stringIcSt11char_traitsIcESaIcEEEE10DescribeToEPSo
FN:1115,1118,_ZNK7testing8internal15EndsWithMatcherINSt7__cxx1112basic_stringIcSt11char_traitsIcESaIcEEEE18DescribeNegationToEPSo
FN:1236,1236,_ZN7testing8internal14NotMatcherImplIRKNSt7__cxx1112basic_stringIcSt11char_traitsIcESaIcEEEEC2ERKNS_7MatcherIS9_EE
FN:1238,1241,_ZNK7testing8internal14NotMatcherImplIRKNSt7__cxx1112basic_stringIcSt11char_traitsIcESaIcEEEE15MatchAndExplainES9_PNS_19MatchResultListenerE
FN:1243,1245,_ZNK7testing8internal14NotMatcherImplIRKNSt7__cxx1112basic_stringIcSt11char_traitsIcESaIcEEEE10DescribeToEPSo
FN:1247,1249,_ZNK7testing8internal14NotMatcherImplIRKNSt7__cxx1112basic_stringIcSt11char_traitsIcESaIcEEEE18DescribeNegationToEPSo
FN:1260,1260,_ZN7testing8internal10NotMatcherINS_18PolymorphicMatcherINS0_16HasSubstrMatcherINSt7__cxx1112basic_stringIcSt11char_traitsIcESaIcEEEEEEEEC2ESB_
FN:1260,1260,_ZN7testing8internal10NotMatcherINS_18PolymorphicMatcherINS0_18StrEqualityMatcherINSt7__cxx1112basic_stringIcSt11char_traitsIcESaIcEEEEEEEEC2ESB_
FN:1260,1260,_ZN7testing8internal10NotMatcherINS_18PolymorphicMatcherINS0_19MatchesRegexMatcherEEEEC2ES4_
FN:1260,1260,_ZN7testing8internal10NotMatcherIPKcEC2ES3_
FN:1265,1267,_ZNK7testing8internal10NotMatcherINS_18PolymorphicMatcherINS0_16HasSubstrMatcherINSt7__cxx1112basic_stringIcSt11char_traitsIcESaIcEEEEEEEEcvNS_7MatcherIT_EEIRKS9_EEv
FN:1265,1267,_ZNK7testing8internal10NotMatcherINS_18PolymorphicMatcherINS0_18StrEqualityMatcherINSt7__cxx1112basic_stringIcSt11char_traitsIcESaIcEEEEEEEEcvNS_7MatcherIT_EEIRKS9_EEv
FN:1265,1267,_ZNK7testing8internal10NotMatcherINS_18PolymorphicMatcherINS0_19MatchesRegexMatcherEEEEcvNS_7MatcherIT_EEIRKNSt7__cxx1112basic_stringIcSt11char_traitsIcESaIcEEEEEv
FN:1265,1267,_ZNK7testing8internal10NotMatcherIPKcEcvNS_7MatcherIT_EEIRKNSt7__cxx1112basic_stringIcSt11char_traitsIcESaIcEEEEEv
FN:1573,1573,_ZN7testing8internal29PredicateFormatterFromMatcherINS0_10NotMatcherINS_18PolymorphicMatcherINS0_16HasSubstrMatcherINSt7__cxx1112basic_stringIcSt11char_traitsIcESaIcEEEEEEEEEEC2ESD_
FN:1573,1573,_ZN7testing8internal29PredicateFormatterFromMatcherINS0_10NotMatcherINS_18PolymorphicMatcherINS0_18StrEqualityMatcherINSt7__cxx1112basic_stringIcSt11char_traitsIcESaIcEEEEEEEEEEC2ESD_
FN:1573,1573,_ZN7testing8internal29PredicateFormatterFromMatcherINS0_10NotMatcherINS_18PolymorphicMatcherINS0_19MatchesRegexMatcherEEEEEEC2ES6_
FN:1573,1573,_ZN7testing8internal29PredicateFormatterFromMatcherINS0_10NotMatcherIPKcEEEC2ES5_
FN:1573,1573,_ZN7testing8internal29PredicateFormatterFromMatcherINS_18PolymorphicMatcherINS0_15EndsWithMatcherINSt7__cxx1112basic_stringIcSt11char_traitsIcESaIcEEEEEEEEC2ESB_
FN:1573,1573,_ZN7testing8internal29PredicateFormatterFromMatcherINS_18PolymorphicMatcherINS0_16HasSubstrMatcherINSt7__cxx1112basic_stringIcSt11char_traitsIcESaIcEEEEEEEEC2ESB_
FN:1573,1573,_ZN7testing8internal29PredicateFormatterFromMatcherINS_18PolymorphicMatcherINS0_17StartsWithMatcherINSt7__cxx1112basic_stringIcSt11char_traitsIcESaIcEEEEEEEEC2ESB_
FN:1573,1573,_ZN7testing8internal29PredicateFormatterFromMatcherINS_18PolymorphicMatcherINS0_18StrEqualityMatcherINSt7__cxx1112basic_stringIcSt11char_traitsIcESaIcEEEEEEEEC2ESB_
FN:1579,1612,_ZNK7testing8internal29PredicateFormatterFromMatcherINS0_10NotMatcherINS_18PolymorphicMatcherINS0_16HasSubstrMatcherINSt7__cxx1112basic_stringIcSt11char_traitsIcESaIcEEEEEEEEEEclISA_EENS_15AssertionResultEPKcRKT_
FN:1579,1612,_ZNK7testing8internal29PredicateFormatterFromMatcherINS0_10NotMatcherINS_18PolymorphicMatcherINS0_18StrEqualityMatcherINSt7__cxx1112basic_stringIcSt11char_traitsIcESaIcEEEEEEEEEEclISA_EENS_15AssertionResultEPKcRKT_
FN:1579,1612,_ZNK7testing8internal29PredicateFormatterFromMatcherINS0_10NotMatcherINS_18PolymorphicMatcherINS0_19MatchesRegexMatcherEEEEEEclINSt7__cxx1112basic_stringIcSt11char_traitsIcESaIcEEEEENS_15AssertionResultEPKcRKT_
FN:1579,1612,_ZNK7testing8internal29PredicateFormatterFromMatcherINS0_10NotMatcherIPKcEEEclINSt7__cxx1112basic_stringIcSt11char_traitsIcESaIcEEEEENS_15AssertionResultES4_RKT_
FN:1579,1612,_ZNK7testing8internal29PredicateFormatterFromMatcherINS_18PolymorphicMatcherINS0_15EndsWithMatcherINSt7__cxx1112basic_stringIcSt11char_traitsIcESaIcEEEEEEEEclIS9_EENS_15AssertionResultEPKcRKT_
FN:1579,1612,_ZNK7testing8internal29PredicateFormatterFromMatcherINS_18PolymorphicMatcherINS0_16HasSubstrMatcherINSt7__cxx1112basic_stringIcSt11char_traitsIcESaIcEEEEEEEEclIS9_EENS_15AssertionResultEPKcRKT_
FN:1579,1612,_ZNK7testing8internal29PredicateFormatterFromMatcherINS_18PolymorphicMatcherINS0_17StartsWithMatcherINSt7__cxx1112basic_stringIcSt11char_traitsIcESaIcEEEEEEEEclIS9_EENS_15AssertionResultEPKcRKT_
FN:1579,1612,_ZNK7testing8internal29PredicateFormatterFromMatcherINS_18PolymorphicMatcherINS0_18StrEqualityMatcherINSt7__cxx1112basic_stringIcSt11char_traitsIcESaIcEEEEEEEEclIS9_EENS_15AssertionResultEPKcRKT_
FN:1623,1626,_ZN7testing8internal33MakePredicateFormatterFromMatcherINS0_10NotMatcherINS_18PolymorphicMatcherINS0_16HasSubstrMatcherINSt7__cxx1112basic_stringIcSt11char_traitsIcESaIcEEEEEEEEEEENS0_29PredicateFormatterFromMatcherIT_EESF_
FN:1623,1626,_ZN7testing8internal33MakePredicateFormatterFromMatcherINS0_10NotMatcherINS_18PolymorphicMatcherINS0_18StrEqualityMatcherINSt7__cxx1112basic_stringIcSt11char_traitsIcESaIcEEEEEEEEEEENS0_29PredicateFormatterFromMatcherIT_EESF_
FN:1623,1626,_ZN7testing8internal33MakePredicateFormatterFromMatcherINS0_10NotMatcherINS_18PolymorphicMatcherINS0_19MatchesRegexMatcherEEEEEEENS0_29PredicateFormatterFromMatcherIT_EES8_
FN:1623,1626,_ZN7testing8internal33MakePredicateFormatterFromMatcherINS0_10NotMatcherIPKcEEEENS0_29PredicateFormatterFromMatcherIT_EES7_
FN:1623,1626,_ZN7testing8internal33MakePredicateFormatterFromMatcherINS_18PolymorphicMatcherINS0_15EndsWithMatcherINSt7__cxx1112basic_stringIcSt11char_traitsIcESaIcEEEEEEEEENS0_29PredicateFormatterFromMatcherIT_EESD_
FN:1623,1626,_ZN7testing8internal33MakePredicateFormatterFromMatcherINS_18PolymorphicMatcherINS0_16HasSubstrMatcherINSt7__cxx1112basic_stringIcSt11char_traitsIcESaIcEEEEEEEEENS0_29PredicateFormatterFromMatcherIT_EESD_
FN:1623,1626,_ZN7testing8internal33MakePredicateFormatterFromMatcherINS_18PolymorphicMatcherINS0_17StartsWithMatcherINSt7__cxx1112basic_stringIcSt11char_traitsIcESaIcEEEEEEEEENS0_29PredicateFormatterFromMatcherIT_EESD_
FN:1623,1626,_ZN7testing8internal33MakePredicateFormatterFromMatcherINS_18PolymorphicMatcherINS0_18StrEqualityMatcherINSt7__cxx1112basic_stringIcSt11char_traitsIcESaIcEEEEEEEEENS0_29PredicateFormatterFromMatcherIT_EESD_
FN:308,308,_ZN7testing25StringMatchResultListenerC2Ev
FN:311,311,_ZNK7testing25StringMatchResultListener3strB5cxx11Ev
FN:341,358,_ZN7testing8internal15MatcherCastImplIRKNSt7__cxx1112basic_stringIcSt11char_traitsIcESaIcEEENS0_10NotMatcherINS_18PolymorphicMatcherINS0_16HasSubstrMatcherIS7_EEEEEEE4CastERKSF_
FN:341,358,_ZN7testing8internal15MatcherCastImplIRKNSt7__cxx1112basic_stringIcSt11char_traitsIcESaIcEEENS0_10NotMatcherINS_18PolymorphicMatcherINS0_18StrEqualityMatcherIS7_EEEEEEE4CastERKSF_
FN:341,358,_ZN7testing8internal15MatcherCastImplIRKNSt7__cxx1112basic_stringIcSt11char_traitsIcESaIcEEENS0_10NotMatcherINS_18PolymorphicMatcherINS0_19MatchesRegexMatcherEEEEEE4CastERKSE_
FN:341,358,_ZN7testing8internal15MatcherCastImplIRKNSt7__cxx1112basic_stringIcSt11char_traitsIcESaIcEEENS0_10NotMatcherIPKcEEE4CastERKSD_
FN:341,358,_ZN7testing8internal15MatcherCastImplIRKNSt7__cxx1112basic_stringIcSt11char_traitsIcESaIcEEENS_18PolymorphicMatcherINS0_15EndsWithMatcherIS7_EEEEE4CastERKSD_
FN:341,358,_ZN7testing8internal15MatcherCastImplIRKNSt7__cxx1112basic_stringIcSt11char_traitsIcESaIcEEENS_18PolymorphicMatcherINS0_16HasSubstrMatcherIS7_EEEEE4CastERKSD_
FN:341,358,_ZN7testing8internal15MatcherCastImplIRKNSt7__cxx1112basic_stringIcSt11char_traitsIcESaIcEEENS_18PolymorphicMatcherINS0_17StartsWithMatcherIS7_EEEEE4CastERKSD_
FN:341,358,_ZN7testing8internal15MatcherCastImplIRKNSt7__cxx1112basic_stringIcSt11char_traitsIcESaIcEEENS_18PolymorphicMatcherINS0_18StrEqualityMatcherIS7_EEEEE4CastERKSD_
FN:341,358,_ZN7testing8internal15MatcherCastImplIRKNSt7__cxx1112basic_stringIcSt11char_traitsIcESaIcEEENS_18PolymorphicMatcherINS0_19MatchesRegexMatcherEEEE4CastERKSC_
FN:341,358,_ZN7testing8internal15MatcherCastImplIRKNSt7__cxx1112basic_stringIcSt11char_traitsIcESaIcEEEPKcE4CastERKSB_
FN:362,374,_ZN7testing8internal15MatcherCastImplIRKNSt7__cxx1112basic_stringIcSt11char_traitsIcESaIcEEENS0_10NotMatcherINS_18PolymorphicMatcherINS0_16HasSubstrMatcherIS7_EEEEEEE8CastImplILb0EEENS_7MatcherIS9_EERKSF_St17integral_constantIbLb1EESM_IbXT_EE
FN:362,374,_ZN7testing8internal15MatcherCastImplIRKNSt7__cxx1112basic_stringIcSt11char_traitsIcESaIcEEENS0_10NotMatcherINS_18PolymorphicMatcherINS0_18StrEqualityMatcherIS7_EEEEEEE8CastImplILb0EEENS_7MatcherIS9_EERKSF_St17integral_constantIbLb1EESM_IbXT_EE
FN:362,374,_ZN7testing8internal15MatcherCastImplIRKNSt7__cxx1112basic_stringIcSt11char_traitsIcESaIcEEENS0_10NotMatcherINS_18PolymorphicMatcherINS0_19MatchesRegexMatcherEEEEEE8CastImplILb0EEENS_7MatcherIS9_EERKSE_St17integral_constantIbLb1EESL_IbXT_EE
FN:362,374,_ZN7testing8internal15MatcherCastImplIRKNSt7__cxx1112basic_stringIcSt11char_traitsIcESaIcEEENS0_10NotMatcherIPKcEEE8CastImplILb0EEENS_7MatcherIS9_EERKSD_St17integral_constantIbLb1EESK_IbXT_EE
FN:362,374,_ZN7testing8internal15MatcherCastImplIRKNSt7__cxx1112basic_stringIcSt11char_traitsIcESaIcEEENS_18PolymorphicMatcherINS0_15EndsWithMatcherIS7_EEEEE8CastImplILb0EEENS_7MatcherIS9_EERKSD_St17integral_constantIbLb1EESK_IbXT_EE
FN:362,374,_ZN7testing8internal15MatcherCastImplIRKNSt7__cxx1112basic_stringIcSt11char_traitsIcESaIcEEENS_18PolymorphicMatcherINS0_16HasSubstrMatcherIS7_EEEEE8CastImplILb0EEENS_7MatcherIS9_EERKSD_St17integral_constantIbLb1EESK_IbXT_EE
FN:362,374,_ZN7testing8internal15MatcherCastImplIRKNSt7__cxx1112basic_stringIcSt11char_traitsIcESaIcEEENS_18PolymorphicMatcherINS0_17StartsWithMatcherIS7_EEEEE8CastImplILb0EEENS_7MatcherIS9_EERKSD_St17integral_constantIbLb1EESK_IbXT_EE
FN:362,374,_ZN7testing8internal15MatcherCastImplIRKNSt7__cxx1112basic_stringIcSt11char_traitsIcESaIcEEENS_18PolymorphicMatcherINS0_18StrEqualityMatcherIS7_EEEEE8CastImplILb0EEENS_7MatcherIS9_EERKSD_St17integral_constantIbLb1EESK_IbXT_EE
FN:362,374,_ZN7testing8internal15MatcherCastImplIRKNSt7__cxx1112basic_stringIcSt11char_traitsIcESaIcEEENS_18PolymorphicMatcherINS0_19MatchesRegexMatcherEEEE8CastImplILb0EEENS_7MatcherIS9_EERKSC_St17integral_constantIbLb1EESJ_IbXT_EE
FN:362,374,_ZN7testing8internal15MatcherCastImplIRKNSt7__cxx1112basic_stringIcSt11char_traitsIcESaIcEEEPKcE8CastImplILb1EEENS_7MatcherIS9_EERKSB_St17integral_constantIbLb1EESI_IbXT_EE
FN:4490,4494,_ZN7testing9StrCaseEqIA28_cEENS_18PolymorphicMatcherINS_8internal18StrEqualityMatcherINSt7__cxx1112basic_stringIcSt11char_traitsIcESaIcEEEEEEERKT_
FN:4490,4494,_ZN7testing9StrCaseEqIA7_cEENS_18PolymorphicMatcherINS_8internal18StrEqualityMatcherINSt7__cxx1112basic_stringIcSt11char_traitsIcESaIcEEEEEEERKT_
FN:4507,4511,_ZN7testing9HasSubstrIA4_cEENS_18PolymorphicMatcherINS_8internal16HasSubstrMatcherINSt7__cxx1112basic_stringIcSt11char_traitsIcESaIcEEEEEEERKT_
FN:4507,4511,_ZN7testing9HasSubstrIA6_cEENS_18PolymorphicMatcherINS_8internal16HasSubstrMatcherINSt7__cxx1112basic_stringIcSt11char_traitsIcESaIcEEEEEEERKT_
FN:4507,4511,_ZN7testing9HasSubstrIA8_cEENS_18PolymorphicMatcherINS_8internal16HasSubstrMatcherINSt7__cxx1112basic_stringIcSt11char_traitsIcESaIcEEEEEEERKT_
FN:4507,4511,_ZN7testing9HasSubstrIA9_cEENS_18PolymorphicMatcherINS_8internal16HasSubstrMatcherINSt7__cxx1112basic_stringIcSt11char_traitsIcESaIcEEEEEEERKT_
FN:4515,4519,_ZN7testing10StartsWithIA3_cEENS_18PolymorphicMatcherINS_8internal17StartsWithMatcherINSt7__cxx1112basic_stringIcSt11char_traitsIcESaIcEEEEEEERKT_
FN:4523,4527,_ZN7testing8EndsWithIA3_cEENS_18PolymorphicMatcherINS_8internal15EndsWithMatcherINSt7__cxx1112basic_stringIcSt11char_traitsIcESaIcEEEEEEERKT_
FN:4663,4665,_ZN7testing3NotINS_18PolymorphicMatcherINS_8internal16HasSubstrMatcherINSt7__cxx1112basic_stringIcSt11char_traitsIcESaIcEEEEEEEEENS2_10NotMatcherIT_EESD_
FN:4663,4665,_ZN7testing3NotINS_18PolymorphicMatcherINS_8internal18StrEqualityMatcherINSt7__cxx1112basic_stringIcSt11char_traitsIcESaIcEEEEEEEEENS2_10NotMatcherIT_EESD_
FN:4663,4665,_ZN7testing3NotINS_18PolymorphicMatcherINS_8internal19MatchesRegexMatcherEEEEENS2_10NotMatcherIT_EES6_
FN:4663,4665,_ZN7testing3NotIPKcEENS_8internal10NotMatcherIT_EES5_
FN:514,516,_ZN7testing11MatcherCastIRKNSt7__cxx1112basic_stringIcSt11char_traitsIcESaIcEEENS_18PolymorphicMatcherINS_8internal15EndsWithMatcherIS6_EEEEEENS_7MatcherIT_EERKT0_
FN:514,516,_ZN7testing11MatcherCastIRKNSt7__cxx1112basic_stringIcSt11char_traitsIcESaIcEEENS_18PolymorphicMatcherINS_8internal16HasSubstrMatcherIS6_EEEEEENS_7MatcherIT_EERKT0_
FN:514,516,_ZN7testing11MatcherCastIRKNSt7__cxx1112basic_stringIcSt11char_traitsIcESaIcEEENS_18PolymorphicMatcherINS_8internal17StartsWithMatcherIS6_EEEEEENS_7MatcherIT_EERKT0_
FN:514,516,_ZN7testing11MatcherCastIRKNSt7__cxx1112basic_stringIcSt11char_traitsIcESaIcEEENS_18PolymorphicMatcherINS_8internal18StrEqualityMatcherIS6_EEEEEENS_7MatcherIT_EERKT0_
FN:514,516,_ZN7testing11MatcherCastIRKNSt7__cxx1112basic_stringIcSt11char_traitsIcESaIcEEENS_18PolymorphicMatcherINS_8internal19MatchesRegexMatcherEEEEENS_7MatcherIT_EERKT0_
FN:514,516,_ZN7testing11MatcherCastIRKNSt7__cxx1112basic_stringIcSt11char_traitsIcESaIcEEENS_8internal10NotMatcherINS_18PolymorphicMatcherINS9_16HasSubstrMatcherIS6_EEEEEEEENS_7MatcherIT_EERKT0_
FN:514,516,_ZN7testing11MatcherCastIRKNSt7__cxx1112basic_stringIcSt11char_traitsIcESaIcEEENS_8internal10NotMatcherINS_18PolymorphicMatcherINS9_18StrEqualityMatcherIS6_EEEEEEEENS_7MatcherIT_EERKT0_
FN:514,516,_ZN7testing11MatcherCastIRKNSt7__cxx1112basic_stringIcSt11char_traitsIcESaIcEEENS_8internal10NotMatcherINS_18PolymorphicMatcherINS9_19MatchesRegexMatcherEEEEEEENS_7MatcherIT_EERKT0_
FN:514,516,_ZN7testing11MatcherCastIRKNSt7__cxx1112basic_stringIcSt11char_traitsIcESaIcEEENS_8internal10NotMatcherIPKcEEEENS_7MatcherIT_EERKT0_
FN:514,516,_ZN7testing11MatcherCastIRKNSt7__cxx1112basic_stringIcSt11char_traitsIcESaIcEEEPKcEENS_7MatcherIT_EERKT0_
FN:521,523,_ZN7testing15SafeMatcherCastIRKNSt7__cxx1112basic_stringIcSt11char_traitsIcESaIcEEENS_18PolymorphicMatcherINS_8internal15EndsWithMatcherIS6_EEEEEENS_7MatcherIT_EERKT0_
FN:521,523,_ZN7testing15SafeMatcherCastIRKNSt7__cxx1112basic_stringIcSt11char_traitsIcESaIcEEENS_18PolymorphicMatcherINS_8internal16HasSubstrMatcherIS6_EEEEEENS_7MatcherIT_EERKT0_
FN:521,523,_ZN7testing15SafeMatcherCastIRKNSt7__cxx1112basic_stringIcSt11char_traitsIcESaIcEEENS_18PolymorphicMatcherINS_8internal17StartsWithMatcherIS6_EEEEEENS_7MatcherIT_EERKT0_
FN:521,523,_ZN7testing15SafeMatcherCastIRKNSt7__cxx1112basic_stringIcSt11char_traitsIcESaIcEEENS_18PolymorphicMatcherINS_8internal18StrEqualityMatcherIS6_EEEEEENS_7MatcherIT_EERKT0_
FN:521,523,_ZN7testing15SafeMatcherCastIRKNSt7__cxx1112basic_stringIcSt11char_traitsIcESaIcEEENS_18PolymorphicMatcherINS_8internal19MatchesRegexMatcherEEEEENS_7MatcherIT_EERKT0_
FN:521,523,_ZN7testing15SafeMatcherCastIRKNSt7__cxx1112basic_stringIcSt11char_traitsIcESaIcEEENS_8internal10NotMatcherINS_18PolymorphicMatcherINS9_16HasSubstrMatcherIS6_EEEEEEEENS_7MatcherIT_EERKT0_
FN:521,523,_ZN7testing15SafeMatcherCastIRKNSt7__cxx1112basic_stringIcSt11char_traitsIcESaIcEEENS_8internal10NotMatcherINS_18PolymorphicMatcherINS9_18StrEqualityMatcherIS6_EEEEEEEENS_7MatcherIT_EERKT0_
FN:521,523,_ZN7testing15SafeMatcherCastIRKNSt7__cxx1112basic_stringIcSt11char_traitsIcESaIcEEENS_8internal10NotMatcherINS_18PolymorphicMatcherINS9_19MatchesRegexMatcherEEEEEEENS_7MatcherIT_EERKT0_
FN:521,523,_ZN7testing15SafeMatcherCastIRKNSt7__cxx1112basic_stringIcSt11char_traitsIcESaIcEEENS_8internal10NotMatcherIPKcEEEENS_7MatcherIT_EERKT0_
FN:521,523,_ZN7testing15SafeMatcherCastIRKNSt7__cxx1112basic_stringIcSt11char_traitsIcESaIcEEEPKcEENS_7MatcherIT_EERKT0_
FN:565,570,_ZN7testing8internal15PrintIfNotEmptyERKNSt7__cxx1112basic_stringIcSt11char_traitsIcESaIcEEEPSo
FN:575,580,_ZN7testing8internal18IsReadableTypeNameERKNSt7__cxx1112basic_stringIcSt11char_traitsIcESaIcEEE
FN:588,608,_ZN7testing8internal20MatchPrintAndExplainIKNSt7__cxx1112basic_stringIcSt11char_traitsIcESaIcEEERS8_EEbRT_RKNS_7MatcherIT0_EEPNS_19MatchResultListenerE
FN:861,863,_ZN7testing8internal28CaseInsensitiveCStringEqualsEPKcS2_
FN:873,890,_ZN7testing8internal27CaseInsensitiveStringEqualsINSt7__cxx1112basic_stringIcSt11char_traitsIcESaIcEEEEEbRKT_SA_
FN:898,901,_ZN7testing8internal18StrEqualityMatcherINSt7__cxx1112basic_stringIcSt11char_traitsIcESaIcEEEEC2ES7_bb
FN:931,937,_ZNK7testing8internal18StrEqualityMatcherINSt7__cxx1112basic_stringIcSt11char_traitsIcESaIcEEEE15MatchAndExplainIS7_EEbRKT_PNS_19MatchResultListenerE
FN:939,941,_ZNK7testing8internal18StrEqualityMatcherINSt7__cxx1112basic_stringIcSt11char_traitsIcESaIcEEEE10DescribeToEPSo
FN:943,945,_ZNK7testing8internal18StrEqualityMatcherINSt7__cxx1112basic_stringIcSt11char_traitsIcESaIcEEEE18DescribeNegationToEPSo
FN:948,955,_ZNK7testing8internal18StrEqualityMatcherINSt7__cxx1112basic_stringIcSt11char_traitsIcESaIcEEEE16DescribeToHelperEbPSo
FN:968,969,_ZN7testing8internal16HasSubstrMatcherINSt7__cxx1112basic_stringIcSt11char_traitsIcESaIcEEEEC2ERKS7_
FN:996,999,_ZNK7testing8internal16HasSubstrMatcherINSt7__cxx1112basic_stringIcSt11char_traitsIcESaIcEEEE15MatchAndExplainIS7_EEbRKT_PNS_19MatchResultListenerE
FNDA:0,_ZNK7testing8internal16HasSubstrMatcherINSt7__cxx1112basic_stringIcSt11char_traitsIcESaIcEEEE10DescribeToEPSo
FNDA:0,_ZNK7testing8internal16HasSubstrMatcherINSt7__cxx1112basic_stringIcSt11char_traitsIcESaIcEEEE18DescribeNegationToEPSo
FNDA:1,_ZN7testing8internal17StartsWithMatcherINSt7__cxx1112basic_stringIcSt11char_traitsIcESaIcEEEEC2ERKS7_
FNDA:1,_ZNK7testing8internal17StartsWithMatcherINSt7__cxx1112basic_stringIcSt11char_traitsIcESaIcEEEE15MatchAndExplainIS7_EEbRKT_PNS_19MatchResultListenerE
FNDA:0,_ZNK7testing8internal17StartsWithMatcherINSt7__cxx1112basic_stringIcSt11char_traitsIcESaIcEEEE10DescribeToEPSo
FNDA:0,_ZNK7testing8internal17StartsWithMatcherINSt7__cxx1112basic_stringIcSt11char_traitsIcESaIcEEEE18DescribeNegationToEPSo
FNDA:1,_ZN7testing8internal15EndsWithMatcherINSt7__cxx1112basic_stringIcSt11char_traitsIcESaIcEEEEC2ERKS7_
FNDA:1,_ZNK7testing8internal15EndsWithMatcherINSt7__cxx1112basic_stringIcSt11char_traitsIcESaIcEEEE15MatchAndExplainIS7_EEbRKT_PNS_19MatchResultListenerE
FNDA:0,_ZNK7testing8internal15EndsWithMatcherINSt7__cxx1112basic_stringIcSt11char_traitsIcESaIcEEEE10DescribeToEPSo
FNDA:0,_ZNK7testing8internal15EndsWithMatcherINSt7__cxx1112basic_stringIcSt11char_traitsIcESaIcEEEE18DescribeNegationToEPSo
FNDA:8,_ZN7testing8internal14NotMatcherImplIRKNSt7__cxx1112basic_stringIcSt11char_traitsIcESaIcEEEEC2ERKNS_7MatcherIS9_EE
FNDA:8,_ZNK7testing8internal14NotMatcherImplIRKNSt7__cxx1112basic_stringIcSt11char_traitsIcESaIcEEEE15MatchAndExplainES9_PNS_19MatchResultListenerE
FNDA:0,_ZNK7testing8internal14NotMatcherImplIRKNSt7__cxx1112basic_stringIcSt11char_traitsIcESaIcEEEE10DescribeToEPSo
FNDA:0,_ZNK7testing8internal14NotMatcherImplIRKNSt7__cxx1112basic_stringIcSt11char_traitsIcESaIcEEEE18DescribeNegationToEPSo
FNDA:1,_ZN7testing8internal10NotMatcherINS_18PolymorphicMatcherINS0_16HasSubstrMatcherINSt7__cxx1112basic_stringIcSt11char_traitsIcESaIcEEEEEEEEC2ESB_
FNDA:2,_ZN7testing8internal10NotMatcherINS_18PolymorphicMatcherINS0_18StrEqualityMatcherINSt7__cxx1112basic_stringIcSt11char_traitsIcESaIcEEEEEEEEC2ESB_
FNDA:2,_ZN7testing8internal10NotMatcherINS_18PolymorphicMatcherINS0_19MatchesRegexMatcherEEEEC2ES4_
FNDA:3,_ZN7testing8internal10NotMatcherIPKcEC2ES3_
FNDA:1,_ZNK7testing8internal10NotMatcherINS_18PolymorphicMatcherINS0_16HasSubstrMatcherINSt7__cxx1112basic_stringIcSt11char_traitsIcESaIcEEEEEEEEcvNS_7MatcherIT_EEIRKS9_EEv
FNDA:2,_ZNK7testing8internal10NotMatcherINS_18PolymorphicMatcherINS0_18StrEqualityMatcherINSt7__cxx1112basic_stringIcSt11char_traitsIcESaIcEEEEEEEEcvNS_7MatcherIT_EEIRKS9_EEv
FNDA:2,_ZNK7testing8internal10NotMatcherINS_18PolymorphicMatcherINS0_19MatchesRegexMatcherEEEEcvNS_7MatcherIT_EEIRKNSt7__cxx1112basic_stringIcSt11char_traitsIcESaIcEEEEEv
FNDA:3,_ZNK7testing8internal10NotMatcherIPKcEcvNS_7MatcherIT_EEIRKNSt7__cxx1112basic_stringIcSt11char_traitsIcESaIcEEEEEv
FNDA:1,_ZN7testing8internal29PredicateFormatterFromMatcherINS0_10NotMatcherINS_18PolymorphicMatcherINS0_16HasSubstrMatcherINSt7__cxx1112basic_stringIcSt11char_traitsIcESaIcEEEEEEEEEEC2ESD_
FNDA:2,_ZN7testing8internal29PredicateFormatterFromMatcherINS0_10NotMatcherINS_18PolymorphicMatcherINS0_18StrEqualityMatcherINSt7__cxx1112basic_stringIcSt11char_traitsIcESaIcEEEEEEEEEEC2ESD_
FNDA:2,_ZN7testing8internal29PredicateFormatterFromMatcherINS0_10NotMatcherINS_18PolymorphicMatcherINS0_19MatchesRegexMatcherEEEEEEC2ES6_
FNDA:3,_ZN7testing8internal29PredicateFormatterFromMatcherINS0_10NotMatcherIPKcEEEC2ES5_
FNDA:1,_ZN7testing8internal29PredicateFormatterFromMatcherINS_18PolymorphicMatcherINS0_15EndsWithMatcherINSt7__cxx1112basic_stringIcSt11char_traitsIcESaIcEEEEEEEEC2ESB_
FNDA:4,_ZN7testing8internal29PredicateFormatterFromMatcherINS_18PolymorphicMatcherINS0_16HasSubstrMatcherINSt7__cxx1112basic_stringIcSt11char_traitsIcESaIcEEEEEEEEC2ESB_
FNDA:1,_ZN7testing8internal29PredicateFormatterFromMatcherINS_18PolymorphicMatcherINS0_17StartsWithMatcherINSt7__cxx1112basic_stringIcSt11char_traitsIcESaIcEEEEEEEEC2ESB_
FNDA:1,_ZN7testing8internal29PredicateFormatterFromMatcherINS_18PolymorphicMatcherINS0_18StrEqualityMatcherINSt7__cxx1112basic_stringIcSt11char_traitsIcESaIcEEEEEEEEC2ESB_
FNDA:1,_ZNK7testing8internal29PredicateFormatterFromMatcherINS0_10NotMatcherINS_18PolymorphicMatcherINS0_16HasSubstrMatcherINSt7__cxx1112basic_stringIcSt11char_traitsIcESaIcEEEEEEEEEEclISA_EENS_15AssertionResultEPKcRKT_
FNDA:2,_ZNK7testing8internal29PredicateFormatterFromMatcherINS0_10NotMatcherINS_18PolymorphicMatcherINS0_18StrEqualityMatcherINSt7__cxx1112basic_stringIcSt11char_traitsIcESaIcEEEEEEEEEEclISA_EENS_15AssertionResultEPKcRKT_
FNDA:2,_ZNK7testing8internal29PredicateFormatterFromMatcherINS0_10NotMatcherINS_18PolymorphicMatcherINS0_19MatchesRegexMatcherEEEEEEclINSt7__cxx1112basic_stringIcSt11char_traitsIcESaIcEEEEENS_15AssertionResultEPKcRKT_
FNDA:3,_ZNK7testing8internal29PredicateFormatterFromMatcherINS0_10NotMatcherIPKcEEEclINSt7__cxx1112basic_stringIcSt11char_traitsIcESaIcEEEEENS_15AssertionResultES4_RKT_
FNDA:1,_ZNK7testing8internal29PredicateFormatterFromMatcherINS_18PolymorphicMatcherINS0_15EndsWithMatcherINSt7__cxx1112basic_stringIcSt11char_traitsIcESaIcEEEEEEEEclIS9_EENS_15AssertionResultEPKcRKT_
FNDA:4,_ZNK7testing8internal29PredicateFormatterFromMatcherINS_18PolymorphicMatcherINS0_16HasSubstrMatcherINSt7__cxx1112basic_stringIcSt11char_traitsIcESaIcEEEEEEEEclIS9_EENS_15AssertionResultEPKcRKT_
FNDA:1,_ZNK7testing8internal29PredicateFormatterFromMatcherINS_18PolymorphicMatcherINS0_17StartsWithMatcherINSt7__cxx1112basic_stringIcSt11char_traitsIcESaIcEEEEEEEEclIS9_EENS_15AssertionResultEPKcRKT_
FNDA:1,_ZNK7testing8internal29PredicateFormatterFromMatcherINS_18PolymorphicMatcherINS0_18StrEqualityMatcherINSt7__cxx1112basic_stringIcSt11char_traitsIcESaIcEEEEEEEEclIS9_EENS_15AssertionResultEPKcRKT_
FNDA:1,_ZN7testing8internal33MakePredicateFormatterFromMatcherINS0_10NotMatcherINS_18PolymorphicMatcherINS0_16HasSubstrMatcherINSt7__cxx1112basic_stringIcSt11char_traitsIcESaIcEEEEEEEEEEENS0_29PredicateFormatterFromMatcherIT_EESF_
FNDA:2,_ZN7testing8internal33MakePredicateFormatterFromMatcherINS0_10NotMatcherINS_18PolymorphicMatcherINS0_18StrEqualityMatcherINSt7__cxx1112basic_stringIcSt11char_traitsIcESaIcEEEEEEEEEEENS0_29PredicateFormatterFromMatcherIT_EESF_
FNDA:2,_ZN7testing8internal33MakePredicateFormatterFromMatcherINS0_10NotMatcherINS_18PolymorphicMatcherINS0_19MatchesRegexMatcherEEEEEEENS0_29PredicateFormatterFromMatcherIT_EES8_
FNDA:3,_ZN7testing8internal33MakePredicateFormatterFromMatcherINS0_10NotMatcherIPKcEEEENS0_29PredicateFormatterFromMatcherIT_EES7_
FNDA:1,_ZN7testing8internal33MakePredicateFormatterFromMatcherINS_18PolymorphicMatcherINS0_15EndsWithMatcherINSt7__cxx1112basic_stringIcSt11char_traitsIcESaIcEEEEEEEEENS0_29PredicateFormatterFromMatcherIT_EESD_
FNDA:4,_ZN7testing8internal33MakePredicateFormatterFromMatcherINS_18PolymorphicMatcherINS0_16HasSubstrMatcherINSt7__cxx1112basic_stringIcSt11char_traitsIcESaIcEEEEEEEEENS0_29PredicateFormatterFromMatcherIT_EESD_
FNDA:1,_ZN7testing8internal33MakePredicateFormatterFromMatcherINS_18PolymorphicMatcherINS0_17StartsWithMatcherINSt7__cxx1112basic_stringIcSt11char_traitsIcESaIcEEEEEEEEENS0_29PredicateFormatterFromMatcherIT_EESD_
FNDA:1,_ZN7testing8internal33MakePredicateFormatterFromMatcherINS_18PolymorphicMatcherINS0_18StrEqualityMatcherINSt7__cxx1112basic_stringIcSt11char_traitsIcESaIcEEEEEEEEENS0_29PredicateFormatterFromMatcherIT_EESD_
FNDA:0,_ZN7testing25StringMatchResultListenerC2Ev
FNDA:0,_ZNK7testing25StringMatchResultListener3strB5cxx11Ev
FNDA:1,_ZN7testing8internal15MatcherCastImplIRKNSt7__cxx1112basic_stringIcSt11char_traitsIcESaIcEEENS0_10NotMatcherINS_18PolymorphicMatcherINS0_16HasSubstrMatcherIS7_EEEEEEE4CastERKSF_
FNDA:2,_ZN7testing8internal15MatcherCastImplIRKNSt7__cxx1112basic_stringIcSt11char_traitsIcESaIcEEENS0_10NotMatcherINS_18PolymorphicMatcherINS0_18StrEqualityMatcherIS7_EEEEEEE4CastERKSF_
FNDA:2,_ZN7testing8internal15MatcherCastImplIRKNSt7__cxx1112basic_stringIcSt11char_traitsIcESaIcEEENS0_10NotMatcherINS_18PolymorphicMatcherINS0_19MatchesRegexMatcherEEEEEE4CastERKSE_
FNDA:3,_ZN7testing8internal15MatcherCastImplIRKNSt7__cxx1112basic_stringIcSt11char_traitsIcESaIcEEENS0_10NotMatcherIPKcEEE4CastERKSD_
FNDA:1,_ZN7testing8internal15MatcherCastImplIRKNSt7__cxx1112basic_stringIcSt11char_traitsIcESaIcEEENS_18PolymorphicMatcherINS0_15EndsWithMatcherIS7_EEEEE4CastERKSD_
FNDA:5,_ZN7testing8internal15MatcherCastImplIRKNSt7__cxx1112basic_stringIcSt11char_traitsIcESaIcEEENS_18PolymorphicMatcherINS0_16HasSubstrMatcherIS7_EEEEE4CastERKSD_
FNDA:1,_ZN7testing8internal15MatcherCastImplIRKNSt7__cxx1112basic_stringIcSt11char_traitsIcESaIcEEENS_18PolymorphicMatcherINS0_17StartsWithMatcherIS7_EEEEE4CastERKSD_
FNDA:3,_ZN7testing8internal15MatcherCastImplIRKNSt7__cxx1112basic_stringIcSt11char_traitsIcESaIcEEENS_18PolymorphicMatcherINS0_18StrEqualityMatcherIS7_EEEEE4CastERKSD_
FNDA:2,_ZN7testing8internal15MatcherCastImplIRKNSt7__cxx1112basic_stringIcSt11char_traitsIcESaIcEEENS_18PolymorphicMatcherINS0_19MatchesRegexMatcherEEEE4CastERKSC_
FNDA:3,_ZN7testing8internal15MatcherCastImplIRKNSt7__cxx1112basic_stringIcSt11char_traitsIcESaIcEEEPKcE4CastERKSB_
FNDA:1,_ZN7testing8internal15MatcherCastImplIRKNSt7__cxx1112basic_stringIcSt11char_traitsIcESaIcEEENS0_10NotMatcherINS_18PolymorphicMatcherINS0_16HasSubstrMatcherIS7_EEEEEEE8CastImplILb0EEENS_7MatcherIS9_EERKSF_St17integral_constantIbLb1EESM_IbXT_EE
FNDA:2,_ZN7testing8internal15MatcherCastImplIRKNSt7__cxx1112basic_stringIcSt11char_traitsIcESaIcEEENS0_10NotMatcherINS_18PolymorphicMatcherINS0_18StrEqualityMatcherIS7_EEEEEEE8CastImplILb0EEENS_7MatcherIS9_EERKSF_St17integral_constantIbLb1EESM_IbXT_EE
FNDA:2,_ZN7testing8internal15MatcherCastImplIRKNSt7__cxx1112basic_stringIcSt11char_traitsIcESaIcEEENS0_10NotMatcherINS_18PolymorphicMatcherINS0_19MatchesRegexMatcherEEEEEE8CastImplILb0EEENS_7MatcherIS9_EERKSE_St17integral_constantIbLb1EESL_IbXT_EE
FNDA:3,_ZN7testing8internal15MatcherCastImplIRKNSt7__cxx1112basic_stringIcSt11char_traitsIcESaIcEEENS0_10NotMatcherIPKcEEE8CastImplILb0EEENS_7MatcherIS9_EERKSD_St17integral_constantIbLb1EESK_IbXT_EE
FNDA:1,_ZN7testing8internal15MatcherCastImplIRKNSt7__cxx1112basic_stringIcSt11char_traitsIcESaIcEEENS_18PolymorphicMatcherINS0_15EndsWithMatcherIS7_EEEEE8CastImplILb0EEENS_7MatcherIS9_EERKSD_St17integral_constantIbLb1EESK_IbXT_EE
FNDA:5,_ZN7testing8internal15MatcherCastImplIRKNSt7__cxx1112basic_stringIcSt11char_traitsIcESaIcEEENS_18PolymorphicMatcherINS0_16HasSubstrMatcherIS7_EEEEE8CastImplILb0EEENS_7MatcherIS9_EERKSD_St17integral_constantIbLb1EESK_IbXT_EE
FNDA:1,_ZN7testing8internal15MatcherCastImplIRKNSt7__cxx1112basic_stringIcSt11char_traitsIcESaIcEEENS_18PolymorphicMatcherINS0_17StartsWithMatcherIS7_EEEEE8CastImplILb0EEENS_7MatcherIS9_EERKSD_St17integral_constantIbLb1EESK_IbXT_EE
FNDA:3,_ZN7testing8internal15MatcherCastImplIRKNSt7__cxx1112basic_stringIcSt11char_traitsIcESaIcEEENS_18PolymorphicMatcherINS0_18StrEqualityMatcherIS7_EEEEE8CastImplILb0EEENS_7MatcherIS9_EERKSD_St17integral_constantIbLb1EESK_IbXT_EE
FNDA:2,_ZN7testing8internal15MatcherCastImplIRKNSt7__cxx1112basic_stringIcSt11char_traitsIcESaIcEEENS_18PolymorphicMatcherINS0_19MatchesRegexMatcherEEEE8CastImplILb0EEENS_7MatcherIS9_EERKSC_St17integral_constantIbLb1EESJ_IbXT_EE
FNDA:3,_ZN7testing8internal15MatcherCastImplIRKNSt7__cxx1112basic_stringIcSt11char_traitsIcESaIcEEEPKcE8CastImplILb1EEENS_7MatcherIS9_EERKSB_St17integral_constantIbLb1EESI_IbXT_EE
FNDA:1,_ZN7testing9StrCaseEqIA28_cEENS_18PolymorphicMatcherINS_8internal18StrEqualityMatcherINSt7__cxx1112basic_stringIcSt11char_traitsIcESaIcEEEEEEERKT_
FNDA:2,_ZN7testing9StrCaseEqIA7_cEENS_18PolymorphicMatcherINS_8internal18StrEqualityMatcherINSt7__cxx1112basic_stringIcSt11char_traitsIcESaIcEEEEEEERKT_
FNDA:1,_ZN7testing9HasSubstrIA4_cEENS_18PolymorphicMatcherINS_8internal16HasSubstrMatcherINSt7__cxx1112basic_stringIcSt11char_traitsIcESaIcEEEEEEERKT_
FNDA:2,_ZN7testing9HasSubstrIA6_cEENS_18PolymorphicMatcherINS_8internal16HasSubstrMatcherINSt7__cxx1112basic_stringIcSt11char_traitsIcESaIcEEEEEEERKT_
FNDA:1,_ZN7testing9HasSubstrIA8_cEENS_18PolymorphicMatcherINS_8internal16HasSubstrMatcherINSt7__cxx1112basic_stringIcSt11char_traitsIcESaIcEEEEEEERKT_
FNDA:1,_ZN7testing9HasSubstrIA9_cEENS_18PolymorphicMatcherINS_8internal16HasSubstrMatcherINSt7__cxx1112basic_stringIcSt11char_traitsIcESaIcEEEEEEERKT_
FNDA:1,_ZN7testing10StartsWithIA3_cEENS_18PolymorphicMatcherINS_8internal17StartsWithMatcherINSt7__cxx1112basic_stringIcSt11char_traitsIcESaIcEEEEEEERKT_
FNDA:1,_ZN7testing8EndsWithIA3_cEENS_18PolymorphicMatcherINS_8internal15EndsWithMatcherINSt7__cxx1112basic_stringIcSt11char_traitsIcESaIcEEEEEEERKT_
FNDA:1,_ZN7testing3NotINS_18PolymorphicMatcherINS_8internal16HasSubstrMatcherINSt7__cxx1112basic_stringIcSt11char_traitsIcESaIcEEEEEEEEENS2_10NotMatcherIT_EESD_
FNDA:2,_ZN7testing3NotINS_18PolymorphicMatcherINS_8internal18StrEqualityMatcherINSt7__cxx1112basic_stringIcSt11char_traitsIcESaIcEEEEEEEEENS2_10NotMatcherIT_EESD_
FNDA:2,_ZN7testing3NotINS_18PolymorphicMatcherINS_8internal19MatchesRegexMatcherEEEEENS2_10NotMatcherIT_EES6_
FNDA:3,_ZN7testing3NotIPKcEENS_8internal10NotMatcherIT_EES5_
FNDA:1,_ZN7testing11MatcherCastIRKNSt7__cxx1112basic_stringIcSt11char_traitsIcESaIcEEENS_18PolymorphicMatcherINS_8internal15EndsWithMatcherIS6_EEEEEENS_7MatcherIT_EERKT0_
FNDA:5,_ZN7testing11MatcherCastIRKNSt7__cxx1112basic_stringIcSt11char_traitsIcESaIcEEENS_18PolymorphicMatcherINS_8internal16HasSubstrMatcherIS6_EEEEEENS_7MatcherIT_EERKT0_
FNDA:1,_ZN7testing11MatcherCastIRKNSt7__cxx1112basic_stringIcSt11char_traitsIcESaIcEEENS_18PolymorphicMatcherINS_8internal17StartsWithMatcherIS6_EEEEEENS_7MatcherIT_EERKT0_
FNDA:3,_ZN7testing11MatcherCastIRKNSt7__cxx1112basic_stringIcSt11char_traitsIcESaIcEEENS_18PolymorphicMatcherINS_8internal18StrEqualityMatcherIS6_EEEEEENS_7MatcherIT_EERKT0_
FNDA:2,_ZN7testing11MatcherCastIRKNSt7__cxx1112basic_stringIcSt11char_traitsIcESaIcEEENS_18PolymorphicMatcherINS_8internal19MatchesRegexMatcherEEEEENS_7MatcherIT_EERKT0_
FNDA:1,_ZN7testing11MatcherCastIRKNSt7__cxx1112basic_stringIcSt11char_traitsIcESaIcEEENS_8internal10NotMatcherINS_18PolymorphicMatcherINS9_16HasSubstrMatcherIS6_EEEEEEEENS_7MatcherIT_EERKT0_
FNDA:2,_ZN7testing11MatcherCastIRKNSt7__cxx1112basic_stringIcSt11char_traitsIcESaIcEEENS_8internal10NotMatcherINS_18PolymorphicMatcherINS9_18StrEqualityMatcherIS6_EEEEEEEENS_7MatcherIT_EERKT0_
FNDA:2,_ZN7testing11MatcherCastIRKNSt7__cxx1112basic_stringIcSt11char_traitsIcESaIcEEENS_8internal10NotMatcherINS_18PolymorphicMatcherINS9_19MatchesRegexMatcherEEEEEEENS_7MatcherIT_EERKT0_
FNDA:3,_ZN7testing11MatcherCastIRKNSt7__cxx1112basic_stringIcSt11char_traitsIcESaIcEEENS_8internal10NotMatcherIPKcEEEENS_7MatcherIT_EERKT0_
FNDA:3,_ZN7testing11MatcherCastIRKNSt7__cxx1112basic_stringIcSt11char_traitsIcESaIcEEEPKcEENS_7MatcherIT_EERKT0_
FNDA:1,_ZN7testing15SafeMatcherCastIRKNSt7__cxx1112basic_stringIcSt11char_traitsIcESaIcEEENS_18PolymorphicMatcherINS_8internal15EndsWithMatcherIS6_EEEEEENS_7MatcherIT_EERKT0_
FNDA:5,_ZN7testing15SafeMatcherCastIRKNSt7__cxx1112basic_stringIcSt11char_traitsIcESaIcEEENS_18PolymorphicMatcherINS_8internal16HasSubstrMatcherIS6_EEEEEENS_7MatcherIT_EERKT0_
FNDA:1,_ZN7testing15SafeMatcherCastIRKNSt7__cxx1112basic_stringIcSt11char_traitsIcESaIcEEENS_18PolymorphicMatcherINS_8internal17StartsWithMatcherIS6_EEEEEENS_7MatcherIT_EERKT0_
FNDA:3,_ZN7testing15SafeMatcherCastIRKNSt7__cxx1112basic_stringIcSt11char_traitsIcESaIcEEENS_18PolymorphicMatcherINS_8internal18StrEqualityMatcherIS6_EEEEEENS_7MatcherIT_EERKT0_
FNDA:2,_ZN7testing15SafeMatcherCastIRKNSt7__cxx1112basic_stringIcSt11char_traitsIcESaIcEEENS_18PolymorphicMatcherINS_8internal19MatchesRegexMatcherEEEEENS_7MatcherIT_EERKT0_
FNDA:1,_ZN7testing15SafeMatcherCastIRKNSt7__cxx1112basic_stringIcSt11char_traitsIcESaIcEEENS_8internal10NotMatcherINS_18PolymorphicMatcherINS9_16HasSubstrMatcherIS6_EEEEEEEENS_7MatcherIT_EERKT0_
FNDA:2,_ZN7testing15SafeMatcherCastIRKNSt7__cxx1112basic_stringIcSt11char_traitsIcESaIcEEENS_8internal10NotMatcherINS_18PolymorphicMatcherINS9_18StrEqualityMatcherIS6_EEEEEEEENS_7MatcherIT_EERKT0_
FNDA:2,_ZN7testing15SafeMatcherCastIRKNSt7__cxx1112basic_stringIcSt11char_traitsIcESaIcEEENS_8internal10NotMatcherINS_18PolymorphicMatcherINS9_19MatchesRegexMatcherEEEEEEENS_7MatcherIT_EERKT0_
FNDA:3,_ZN7testing15SafeMatcherCastIRKNSt7__cxx1112basic_stringIcSt11char_traitsIcESaIcEEENS_8internal10NotMatcherIPKcEEEENS_7MatcherIT_EERKT0_
FNDA:3,_ZN7testing15SafeMatcherCastIRKNSt7__cxx1112basic_stringIcSt11char_traitsIcESaIcEEEPKcEENS_7MatcherIT_EERKT0_
FNDA:0,_ZN7testing8internal15PrintIfNotEmptyERKNSt7__cxx1112basic_stringIcSt11char_traitsIcESaIcEEEPSo
FNDA:0,_ZN7testing8internal18IsReadableTypeNameERKNSt7__cxx1112basic_stringIcSt11char_traitsIcESaIcEEE
FNDA:0,_ZN7testing8internal20MatchPrintAndExplainIKNSt7__cxx1112basic_stringIcSt11char_traitsIcESaIcEEERS8_EEbRT_RKNS_7MatcherIT0_EEPNS_19MatchResultListenerE
FNDA:3,_ZN7testing8internal28CaseInsensitiveCStringEqualsEPKcS2_
FNDA:3,_ZN7testing8internal27CaseInsensitiveStringEqualsINSt7__cxx1112basic_stringIcSt11char_traitsIcESaIcEEEEEbRKT_SA_
FNDA:3,_ZN7testing8internal18StrEqualityMatcherINSt7__cxx1112basic_stringIcSt11char_traitsIcESaIcEEEEC2ES7_bb
FNDA:3,_ZNK7testing8internal18StrEqualityMatcherINSt7__cxx1112basic_stringIcSt11char_traitsIcESaIcEEEE15MatchAndExplainIS7_EEbRKT_PNS_19MatchResultListenerE
FNDA:0,_ZNK7testing8internal18StrEqualityMatcherINSt7__cxx1112basic_stringIcSt11char_traitsIcESaIcEEEE10DescribeToEPSo
FNDA:0,_ZNK7testing8internal18StrEqualityMatcherINSt7__cxx1112basic_stringIcSt11char_traitsIcESaIcEEEE18DescribeNegationToEPSo
FNDA:0,_ZNK7testing8internal18StrEqualityMatcherINSt7__cxx1112basic_stringIcSt11char_traitsIcESaIcEEEE16DescribeToHelperEbPSo
FNDA:5,_ZN7testing8internal16HasSubstrMatcherINSt7__cxx1112basic_stringIcSt11char_traitsIcESaIcEEEEC2ERKS7_
FNDA:5,_ZNK7testing8internal16HasSubstrMatcherINSt7__cxx1112basic_stringIcSt11char_traitsIcESaIcEEEE15MatchAndExplainIS7_EEbRKT_PNS_19MatchResultListenerE
FNF:112
FNH:96
BRDA:308,0,0,-
BRDA:308,e0,1,-
BRDA:357,0,0,23
BRDA:357,e0,1,0
BRDA:567,0,0,-
BRDA:567,0,1,-
BRDA:567,0,2,-
BRDA:567,0,3,-
BRDA:567,0,4,-
BRDA:567,0,5,-
BRDA:578,0,0,-
BRDA:578,0,1,-
BRDA:578,0,2,-
BRDA:578,0,3,-
BRDA:590,0,0,-
BRDA:590,0,1,-
BRDA:593,0,0,-
BRDA:593,e0,1,-
BRDA:596,0,0,-
BRDA:596,e0,1,-
BRDA:597,0,0,-
BRDA:597,e0,1,-
BRDA:599,0,0,-
BRDA:599,e0,1,-
BRDA:601,0,0,-
BRDA:601,e0,1,-
BRDA:602,0,0,-
BRDA:602,0,1,-
BRDA:603,0,0,-
BRDA:603,e0,1,-
BRDA:603,0,2,-
BRDA:603,e0,3,-
BRDA:603,0,4,-
BRDA:603,e0,5,-
BRDA:605,0,0,-
BRDA:605,e0,1,-
BRDA:605,0,2,-
BRDA:605,e0,3,-
BRDA:875,0,0,2
BRDA:875,0,1,1
BRDA:884,0,0,0
BRDA:884,0,1,1
BRDA:884,0,2,0
BRDA:884,0,3,0
BRDA:889,0,0,-
BRDA:889,e0,1,-
BRDA:889,0,2,-
BRDA:889,e0,3,-
BRDA:889,0,4,-
BRDA:889,e0,5,-
BRDA:933,0,0,3
BRDA:933,e0,1,0
BRDA:934,0,0,0
BRDA:934,0,1,3
BRDA:935,0,0,3
BRDA:935,e0,1,0
BRDA:949,0,0,-
BRDA:949,0,1,-
BRDA:951,0,0,-
BRDA:951,0,1,-
BRDA:998,0,0,5
BRDA:998,e0,1,0
BRDA:1051,0,0,1
BRDA:1051,e0,1,0
BRDA:1052,0,0,1
BRDA:1052,0,1,0
BRDA:1052,0,2,1
BRDA:1052,0,3,0
BRDA:1053,0,0,1
BRDA:1053,e0,1,0
BRDA:1053,0,2,1
BRDA:1053,0,3,0
BRDA:1053,0,4,0
BRDA:1053,0,5,0
BRDA:1105,0,0,1
BRDA:1105,e0,1,0
BRDA:1106,0,0,1
BRDA:1106,0,1,0
BRDA:1106,0,2,1
BRDA:1106,0,3,0
BRDA:1107,0,0,1
BRDA:1107,e0,1,0
BRDA:1107,0,2,1
BRDA:1107,0,3,0
BRDA:1107,0,4,0
BRDA:1107,0,5,0
BRDA:1236,0,0,8
BRDA:1236,e0,1,0
BRDA:1266,0,0,8
BRDA:1266,e0,1,0
BRDA:1266,0,2,8
BRDA:1266,e0,3,0
BRDA:1266,0,4,8
BRDA:1266,e0,5,0
BRDA:1266,0,6,0
BRDA:1266,0,7,0
BRDA:1591,0,0,15
BRDA:1591,e0,1,0
BRDA:1595,0,0,15
BRDA:1595,e0,1,0
BRDA:1595,0,2,15
BRDA:1595,0,3,0
BRDA:1596,0,0,15
BRDA:1596,e0,1,0
BRDA:1599,0,0,-
BRDA:1599,e0,1,-
BRDA:1601,0,0,-
BRDA:1601,e0,1,-
BRDA:1601,0,2,-
BRDA:1601,e0,3,-
BRDA:1601,0,4,-
BRDA:1601,e0,5,-
BRDA:1601,0,6,-
BRDA:1601,e0,7,-
BRDA:1602,0,0,-
BRDA:1602,e0,1,-
BRDA:1605,0,0,-
BRDA:1605,e0,1,-
BRDA:1606,0,0,-
BRDA:1606,e0,1,-
BRDA:1606,0,2,-
BRDA:1606,0,3,-
BRDA:1607,0,0,-
BRDA:1607,e0,1,-
BRDA:1610,0,0,-
BRDA:1610,e0,1,-
BRDA:1610,0,2,-
BRDA:1610,e0,3,-
BRDA:1610,0,4,-
BRDA:1610,e0,5,-
BRDA:1611,0,0,-
BRDA:1611,e0,1,-
BRDA:1611,0,2,-
BRDA:1611,e0,3,-
BRDA:1611,0,4,-
BRDA:1611,e0,5,-
BRDA:1611,0,6,-
BRDA:1611,e0,7,-
BRDA:1625,0,0,10
BRDA:1625,e0,1,0
BRDA:1625,0,2,10
BRDA:1625,e0,3,0
BRDA:4493,0,0,3
BRDA:4493,e0,1,0
BRDA:4493,0,2,3
BRDA:4493,e0,3,0
BRDA:4510,0,0,5
BRDA:4510,e0,1,0
BRDA:4510,0,2,5
BRDA:4510,e0,3,0
BRDA:4510,0,4,5
BRDA:4510,e0,5,0
BRDA:4518,0,0,1
BRDA:4518,e0,1,0
BRDA:4518,0,2,1
BRDA:4518,e0,3,0
BRDA:4518,0,4,1
BRDA:4518,e0,5,0
BRDA:4526,0,0,1
BRDA:4526,e0,1,0
BRDA:4526,0,2,1
BRDA:4526,e0,3,0
BRDA:4526,0,4,1
BRDA:4526,e0,5,0
BRDA:4664,0,0,3
BRDA:4664,e0,1,0
BRDA:4664,0,2,3
BRDA:4664,e0,3,0
BRF:168
BRH:41
DA:308,0
DA:311,0
DA:341,23
DA:357,23
DA:362,23
DA:373,23
DA:514,23
DA:515,23
DA:521,23
DA:522,23
DA:565,0
DA:567,0
DA:568,0
DA:570,0
DA:575,0
DA:578,0
DA:579,0
DA:588,0
DA:590,0
DA:593,0
DA:596,0
DA:597,0
DA:599,0
DA:601,0
DA:602,0
DA:603,0
DA:605,0
DA:607,0
DA:608,0
DA:861,3
DA:862,3
DA:873,3
DA:875,3
DA:876,2
DA:880,1
DA:881,1
DA:884,1
DA:885,1
DA:889,0
DA:898,3
DA:899,3
DA:900,3
DA:901,3
DA:931,3
DA:933,3
DA:934,3
DA:935,3
DA:936,3
DA:937,3
DA:939,0
DA:940,0
DA:941,0
DA:943,0
DA:944,0
DA:945,0
DA:948,0
DA:949,0
DA:950,0
DA:951,0
DA:952,0
DA:954,0
DA:955,0
DA:968,5
DA:969,5
DA:996,5
DA:998,5
DA:1002,0
DA:1003,0
DA:1004,0
DA:1005,0
DA:1007,0
DA:1008,0
DA:1009,0
DA:1010,0
DA:1022,1
DA:1049,1
DA:1051,1
DA:1052,2
DA:1053,3
DA:1054,1
DA:1056,0
DA:1057,0
DA:1058,0
DA:1059,0
DA:1061,0
DA:1062,0
DA:1063,0
DA:1064,0
DA:1076,1
DA:1103,1
DA:1105,1
DA:1106,2
DA:1107,3
DA:1108,1
DA:1110,0
DA:1111,0
DA:1112,0
DA:1113,0
DA:1115,0
DA:1116,0
DA:1117,0
DA:1118,0
DA:1236,8
DA:1238,8
DA:1240,8
DA:1243,0
DA:1244,0
DA:1245,0
DA:1247,0
DA:1248,0
DA:1249,0
DA:1260,8
DA:1265,8
DA:1266,8
DA:1573,15
DA:1579,15
DA:1591,15
DA:1595,15
DA:1596,15
DA:1599,0
DA:1601,0
DA:1602,0
DA:1605,0
DA:1606,0
DA:1607,0
DA:1610,0
DA:1611,0
DA:1612,15
DA:1623,15
DA:1625,15
DA:4490,3
DA:4493,6
DA:4507,5
DA:4510,10
DA:4515,1
DA:4518,2
DA:4523,1
DA:4526,2
DA:4663,8
DA:4664,8
LF:140
LH:67
end_of_record
TN:
SF:/usr/include/gtest/gtest-assertion-result.h
FN:155,161,_ZN7testing15AssertionResultC2IbEERKT_PNSt9enable_ifIXntsrSt14is_convertibleIS2_S0_E5valueEvE4typeE
FN:174,174,_ZNK7testing15AssertionResultcvbEv
FN:183,185,_ZNK7testing15AssertionResult7messageEv
FN:187,187,_ZNK7testing15AssertionResult15failure_messageEv
FN:191,194,_ZN7testing15AssertionResultlsIA12_cEERS0_RKT_
FN:191,194,_ZN7testing15AssertionResultlsIA3_cEERS0_RKT_
FN:191,194,_ZN7testing15AssertionResultlsIA5_cEERS0_RKT_
FN:191,194,_ZN7testing15AssertionResultlsINSt7__cxx1112basic_stringIcSt11char_traitsIcESaIcEEEEERS0_RKT_
FN:191,194,_ZN7testing15AssertionResultlsIPKcEERS0_RKT_
FN:206,209,_ZN7testing15AssertionResult13AppendMessageERKNS_7MessageE
FNDA:8,_ZN7testing15AssertionResultC2IbEERKT_PNSt9enable_ifIXntsrSt14is_convertibleIS2_S0_E5valueEvE4typeE
FNDA:100,_ZNK7testing15AssertionResultcvbEv
FNDA:0,_ZNK7testing15AssertionResult7messageEv
FNDA:0,_ZNK7testing15AssertionResult15failure_messageEv
FNDA:0,_ZN7testing15AssertionResultlsIA12_cEERS0_RKT_
FNDA:0,_ZN7testing15AssertionResultlsIA3_cEERS0_RKT_
FNDA:0,_ZN7testing15AssertionResultlsIA5_cEERS0_RKT_
FNDA:0,_ZN7testing15AssertionResultlsINSt7__cxx1112basic_stringIcSt11char_traitsIcESaIcEEEEERS0_RKT_
FNDA:0,_ZN7testing15AssertionResultlsIPKcEERS0_RKT_
FNDA:0,_ZN7testing15AssertionResult13AppendMessageERKNS_7MessageE
FNF:10
FNH:2
BRDA:184,0,0,-
BRDA:184,0,1,-
BRDA:192,0,0,-
BRDA:192,e0,1,-
BRDA:192,0,2,-
BRDA:192,e0,3,-
BRDA:192,0,4,-
BRDA:192,e0,5,-
BRDA:207,0,0,-
BRDA:207,0,1,-
BRDA:207,0,2,-
BRDA:207,e0,3,-
BRDA:208,0,0,-
BRDA:208,e0,1,-
BRDA:208,0,2,-
BRDA:208,e0,3,-
BRF:16
BRH:0
DA:155,8
DA:161,8
DA:174,100
DA:183,0
DA:184,0
DA:187,0
DA:191,0
DA:192,0
DA:193,0
DA:206,0
DA:207,0
DA:208,0
DA:209,0
LF:13
LH:3
end_of_record
TN:
SF:/usr/include/gtest/gtest-matchers.h
FN:101,101,_ZNK7testing19MatchResultListener12IsInterestedEv
FN:110,110,_ZN7testing19MatchResultListenerD0Ev
FN:110,110,_ZN7testing19MatchResultListenerD2Ev
FN:116,116,_ZN7testing25MatcherDescriberInterfaceD0Ev
FN:116,116,_ZN7testing25MatcherDescriberInterfaceD2Ev
FN:131,135,_ZNK7testing25MatcherDescriberInterface18DescribeNegationToEPSo
FN:185,185,_ZN7testing8internal24DummyMatchResultListenerC2Ev
FN:208,208,_ZN7testing8internal17SharedPayloadBase3RefEv
FN:209,209,_ZN7testing8internal17SharedPayloadBase5UnrefEv
FN:215,215,_ZN7testing8internal13SharedPayloadISt10unique_ptrIKNS_16MatcherInterfaceIRKNSt7__cxx1112basic_stringIcSt11char_traitsIcESaIcEEEEESt14default_deleteISD_EEEC2EOSG_
FN:217,219,_ZN7testing8internal13SharedPayloadISt10unique_ptrIKNS_16MatcherInterfaceIRKNSt7__cxx1112basic_stringIcSt11char_traitsIcESaIcEEEEESt14default_deleteISD_EEE7DestroyEPNS0_17SharedPayloadBaseE
FN:232,235,_ZNK7testing8internal11MatcherBaseIRKNSt7__cxx1112basic_stringIcSt11char_traitsIcESaIcEEEE15MatchAndExplainES9_PNS_19MatchResultListenerE
FN:238,241,_ZNK7testing8internal11MatcherBaseIRKNSt7__cxx1112basic_stringIcSt11char_traitsIcESaIcEEEE7MatchesES9_
FN:244,247,_ZNK7testing8internal11MatcherBaseIRKNSt7__cxx1112basic_stringIcSt11char_traitsIcESaIcEEEE10DescribeToEPSo
FN:250,253,_ZNK7testing8internal11MatcherBaseIRKNSt7__cxx1112basic_stringIcSt11char_traitsIcESaIcEEEE18DescribeNegationToEPSo
FN:274,277,_ZN7testing8internal11MatcherBaseIRKNSt7__cxx1112basic_stringIcSt11char_traitsIcESaIcEEEEC2IS9_EEPKNS_16MatcherInterfaceIT_EE
FN:285,288,_ZN7testing8internal11MatcherBaseIRKNSt7__cxx1112basic_stringIcSt11char_traitsIcESaIcEEEEC2ERKSA_
FN:313,313,_ZN7testing8internal11MatcherBaseIRKNSt7__cxx1112basic_stringIcSt11char_traitsIcESaIcEEEED0Ev
FN:313,313,_ZN7testing8internal11MatcherBaseIRKNSt7__cxx1112basic_stringIcSt11char_traitsIcESaIcEEEED2Ev
FN:327,329,_ZNK7testing8internal11MatcherBaseIRKNSt7__cxx1112basic_stringIcSt11char_traitsIcESaIcEEEE8IsSharedEv
FN:340,344,_ZN7testing8internal11MatcherBaseIRKNSt7__cxx1112basic_stringIcSt11char_traitsIcESaIcEEEE19MatchAndExplainImplINSA_11ValuePolicyIPKNS_16MatcherInterfaceIS9_EELb1EEEEEDTcldtclsrT_3Getfp_E15MatchAndExplainfp0_fp1_EERKSA_S9_PNS_19MatchResultListenerE
FN:347,354,_ZN7testing8internal11MatcherBaseIRKNSt7__cxx1112basic_stringIcSt11char_traitsIcESaIcEEEE12DescribeImplINSA_11ValuePolicyIPKNS_16MatcherInterfaceIS9_EELb1EEEEEvRKSA_PSob
FN:357,370,_ZN7testing8internal11MatcherBaseIRKNSt7__cxx1112basic_stringIcSt11char_traitsIcESaIcEEEE16GetDescriberImplINSA_11ValuePolicyIPKNS_16MatcherInterfaceIS9_EELb1EEEEEPKNS_25MatcherDescriberInterfaceERKSA_
FN:373,378,_ZN7testing8internal11MatcherBaseIRKNSt7__cxx1112basic_stringIcSt11char_traitsIcESaIcEEEE9GetVTableINSA_11ValuePolicyIPKNS_16MatcherInterfaceIS9_EELb1EEEEEPKNSA_6VTableEv
FN:389,393,_ZN7testing8internal11MatcherBaseIRKNSt7__cxx1112basic_stringIcSt11char_traitsIcESaIcEEEE7DestroyEv
FN:434,436,_ZN7testing8internal11MatcherBaseIRKNSt7__cxx1112basic_stringIcSt11char_traitsIcESaIcEEEE11ValuePolicyIPKNS_16MatcherInterfaceIS9_EELb1EE3GetERKSA_
FN:437,439,_ZN7testing8internal11MatcherBaseIRKNSt7__cxx1112basic_stringIcSt11char_traitsIcESaIcEEEE11ValuePolicyIPKNS_16MatcherInterfaceIS9_EELb1EE4InitERSA_SF_
FN:445,450,_ZN7testing8internal11MatcherBaseIRKNSt7__cxx1112basic_stringIcSt11char_traitsIcESaIcEEEE4InitIRPKNS_16MatcherInterfaceIS9_EEEEvOT_
FN:499,500,_ZN7testing7MatcherIRKNSt7__cxx1112basic_stringIcSt11char_traitsIcESaIcEEEEC2EPKNS_16MatcherInterfaceIS8_EE
FN:619,619,_ZN7testing18PolymorphicMatcherINS_8internal15EndsWithMatcherINSt7__cxx1112basic_stringIcSt11char_traitsIcESaIcEEEEEEC2ERKS9_
FN:619,619,_ZN7testing18PolymorphicMatcherINS_8internal16HasSubstrMatcherINSt7__cxx1112basic_stringIcSt11char_traitsIcESaIcEEEEEEC2ERKS9_
FN:619,619,_ZN7testing18PolymorphicMatcherINS_8internal17StartsWithMatcherINSt7__cxx1112basic_stringIcSt11char_traitsIcESaIcEEEEEEC2ERKS9_
FN:619,619,_ZN7testing18PolymorphicMatcherINS_8internal18StrEqualityMatcherINSt7__cxx1112basic_stringIcSt11char_traitsIcESaIcEEEEEEC2ERKS9_
FN:619,619,_ZN7testing18PolymorphicMatcherINS_8internal19MatchesRegexMatcherEEC2ERKS2_
FN:630,632,_ZNK7testing18PolymorphicMatcherINS_8internal15EndsWithMatcherINSt7__cxx1112basic_stringIcSt11char_traitsIcESaIcEEEEEEcvNS_7MatcherIT_EEIRKS8_EEv
FN:630,632,_ZNK7testing18PolymorphicMatcherINS_8internal16HasSubstrMatcherINSt7__cxx1112basic_stringIcSt11char_traitsIcESaIcEEEEEEcvNS_7MatcherIT_EEIRKS8_EEv
FN:630,632,_ZNK7testing18PolymorphicMatcherINS_8internal17StartsWithMatcherINSt7__cxx1112basic_stringIcSt11char_traitsIcESaIcEEEEEEcvNS_7MatcherIT_EEIRKS8_EEv
FN:630,632,_ZNK7testing18PolymorphicMatcherINS_8internal18StrEqualityMatcherINSt7__cxx1112basic_stringIcSt11char_traitsIcESaIcEEEEEEcvNS_7MatcherIT_EEIRKS8_EEv
FN:630,632,_ZNK7testing18PolymorphicMatcherINS_8internal19MatchesRegexMatcherEEcvNS_7MatcherIT_EEIRKNSt7__cxx1112basic_stringIcSt11char_traitsIcESaIcEEEEEv
FN:638,638,_ZN7testing18PolymorphicMatcherINS_8internal15EndsWithMatcherINSt7__cxx1112basic_stringIcSt11char_traitsIcESaIcEEEEEE15MonomorphicImplIRKS8_EC2ERKS9_
FN:638,638,_ZN7testing18PolymorphicMatcherINS_8internal16HasSubstrMatcherINSt7__cxx1112basic_stringIcSt11char_traitsIcESaIcEEEEEE15MonomorphicImplIRKS8_EC2ERKS9_
FN:638,638,_ZN7testing18PolymorphicMatcherINS_8internal17StartsWithMatcherINSt7__cxx1112basic_stringIcSt11char_traitsIcESaIcEEEEEE15MonomorphicImplIRKS8_EC2ERKS9_
FN:638,638,_ZN7testing18PolymorphicMatcherINS_8internal18StrEqualityMatcherINSt7__cxx1112basic_stringIcSt11char_traitsIcESaIcEEEEEE15MonomorphicImplIRKS8_EC2ERKS9_
FN:638,638,_ZN7testing18PolymorphicMatcherINS_8internal19MatchesRegexMatcherEE15MonomorphicImplIRKNSt7__cxx1112basic_stringIcSt11char_traitsIcESaIcEEEEC2ERKS2_
FN:640,640,_ZNK7testing18PolymorphicMatcherINS_8internal15EndsWithMatcherINSt7__cxx1112basic_stringIcSt11char_traitsIcESaIcEEEEEE15MonomorphicImplIRKS8_E10DescribeToEPSo
FN:640,640,_ZNK7testing18PolymorphicMatcherINS_8internal16HasSubstrMatcherINSt7__cxx1112basic_stringIcSt11char_traitsIcESaIcEEEEEE15MonomorphicImplIRKS8_E10DescribeToEPSo
FN:640,640,_ZNK7testing18PolymorphicMatcherINS_8internal17StartsWithMatcherINSt7__cxx1112basic_stringIcSt11char_traitsIcESaIcEEEEEE15MonomorphicImplIRKS8_E10DescribeToEPSo
FN:640,640,_ZNK7testing18PolymorphicMatcherINS_8internal18StrEqualityMatcherINSt7__cxx1112basic_stringIcSt11char_traitsIcESaIcEEEEEE15MonomorphicImplIRKS8_E10DescribeToEPSo
FN:640,640,_ZNK7testing18PolymorphicMatcherINS_8internal19MatchesRegexMatcherEE15MonomorphicImplIRKNSt7__cxx1112basic_stringIcSt11char_traitsIcESaIcEEEE10DescribeToEPSo
FN:642,644,_ZNK7testing18PolymorphicMatcherINS_8internal15EndsWithMatcherINSt7__cxx1112basic_stringIcSt11char_traitsIcESaIcEEEEEE15MonomorphicImplIRKS8_E18DescribeNegationToEPSo
FN:642,644,_ZNK7testing18PolymorphicMatcherINS_8internal16HasSubstrMatcherINSt7__cxx1112basic_stringIcSt11char_traitsIcESaIcEEEEEE15MonomorphicImplIRKS8_E18DescribeNegationToEPSo
FN:642,644,_ZNK7testing18PolymorphicMatcherINS_8internal17StartsWithMatcherINSt7__cxx1112basic_stringIcSt11char_traitsIcESaIcEEEEEE15MonomorphicImplIRKS8_E18DescribeNegationToEPSo
FN:642,644,_ZNK7testing18PolymorphicMatcherINS_8internal18StrEqualityMatcherINSt7__cxx1112basic_stringIcSt11char_traitsIcESaIcEEEEEE15MonomorphicImplIRKS8_E18DescribeNegationToEPSo
FN:642,644,_ZNK7testing18PolymorphicMatcherINS_8internal19MatchesRegexMatcherEE15MonomorphicImplIRKNSt7__cxx1112basic_stringIcSt11char_traitsIcESaIcEEEE18DescribeNegationToEPSo
FN:646,648,_ZNK7testing18PolymorphicMatcherINS_8internal15EndsWithMatcherINSt7__cxx1112basic_stringIcSt11char_traitsIcESaIcEEEEEE15MonomorphicImplIRKS8_E15MatchAndExplainESD_PNS_19MatchResultListenerE
FN:646,648,_ZNK7testing18PolymorphicMatcherINS_8internal16HasSubstrMatcherINSt7__cxx1112basic_stringIcSt11char_traitsIcESaIcEEEEEE15MonomorphicImplIRKS8_E15MatchAndExplainESD_PNS_19MatchResultListenerE
FN:646,648,_ZNK7testing18PolymorphicMatcherINS_8internal17StartsWithMatcherINSt7__cxx1112basic_stringIcSt11char_traitsIcESaIcEEEEEE15MonomorphicImplIRKS8_E15MatchAndExplainESD_PNS_19MatchResultListenerE
FN:646,648,_ZNK7testing18PolymorphicMatcherINS_8internal18StrEqualityMatcherINSt7__cxx1112basic_stringIcSt11char_traitsIcESaIcEEEEEE15MonomorphicImplIRKS8_E15MatchAndExplainESD_PNS_19MatchResultListenerE
FN:646,648,_ZNK7testing18PolymorphicMatcherINS_8internal19MatchesRegexMatcherEE15MonomorphicImplIRKNSt7__cxx1112basic_stringIcSt11char_traitsIcESaIcEEEE15MatchAndExplainESC_PNS_19MatchResultListenerE
FN:676,678,_ZN7testing22MakePolymorphicMatcherINS_8internal15EndsWithMatcherINSt7__cxx1112basic_stringIcSt11char_traitsIcESaIcEEEEEEENS_18PolymorphicMatcherIT_EERKSB_
FN:676,678,_ZN7testing22MakePolymorphicMatcherINS_8internal16HasSubstrMatcherINSt7__cxx1112basic_stringIcSt11char_traitsIcESaIcEEEEEEENS_18PolymorphicMatcherIT_EERKSB_
FN:676,678,_ZN7testing22MakePolymorphicMatcherINS_8internal17StartsWithMatcherINSt7__cxx1112basic_stringIcSt11char_traitsIcESaIcEEEEEEENS_18PolymorphicMatcherIT_EERKSB_
FN:676,678,_ZN7testing22MakePolymorphicMatcherINS_8internal18StrEqualityMatcherINSt7__cxx1112basic_stringIcSt11char_traitsIcESaIcEEEEEEENS_18PolymorphicMatcherIT_EERKSB_
FN:676,678,_ZN7testing22MakePolymorphicMatcherINS_8internal19MatchesRegexMatcherEEENS_18PolymorphicMatcherIT_EERKS4_
FN:785,786,_ZN7testing8internal19MatchesRegexMatcherC2EPKNS0_2REEb
FN:810,815,_ZNK7testing8internal19MatchesRegexMatcher15MatchAndExplainINSt7__cxx1112basic_stringIcSt11char_traitsIcESaIcEEEEEbRKT_PNS_19MatchResultListenerE
FN:817,820,_ZNK7testing8internal19MatchesRegexMatcher10DescribeToEPSo
FN:822,826,_ZNK7testing8internal19MatchesRegexMatcher18DescribeNegationToEPSo
FN:83,83,_ZN7testing19MatchResultListenerC2EPSo
FN:836,839,_ZN7testing12MatchesRegexEPKNS_8internal2REE
FN:841,844,_ZN7testing12MatchesRegexIA10_cEENS_18PolymorphicMatcherINS_8internal19MatchesRegexMatcherEEERKT_
FN:841,844,_ZN7testing12MatchesRegexIA5_cEENS_18PolymorphicMatcherINS_8internal19MatchesRegexMatcherEEERKT_
FN:95,95,_ZN7testing19MatchResultListener6streamEv
FNDA:0,_ZNK7testing19MatchResultListener12IsInterestedEv
FNDA:0,_ZN7testing19MatchResultListenerD0Ev
FNDA:15,_ZN7testing19MatchResultListenerD2Ev
FNDA:0,_ZN7testing25MatcherDescriberInterfaceD0Ev
FNDA:51,_ZN7testing25MatcherDescriberInterfaceD2Ev
FNDA:0,_ZNK7testing25MatcherDescriberInterface18DescribeNegationToEPSo
FNDA:15,_ZN7testing8internal24DummyMatchResultListenerC2Ev
FNDA:8,_ZN7testing8internal17SharedPayloadBase3RefEv
FNDA:31,_ZN7testing8internal17SharedPayloadBase5UnrefEv
FNDA:20,_ZN7testing8internal13SharedPayloadISt10unique_ptrIKNS_16MatcherInterfaceIRKNSt7__cxx1112basic_stringIcSt11char_traitsIcESaIcEEEEESt14default_deleteISD_EEEC2EOSG_
FNDA:20,_ZN7testing8internal13SharedPayloadISt10unique_ptrIKNS_16MatcherInterfaceIRKNSt7__cxx1112basic_stringIcSt11char_traitsIcESaIcEEEEESt14default_deleteISD_EEE7DestroyEPNS0_17SharedPayloadBaseE
FNDA:23,_ZNK7testing8internal11MatcherBaseIRKNSt7__cxx1112basic_stringIcSt11char_traitsIcESaIcEEEE15MatchAndExplainES9_PNS_19MatchResultListenerE
FNDA:15,_ZNK7testing8internal11MatcherBaseIRKNSt7__cxx1112basic_stringIcSt11char_traitsIcESaIcEEEE7MatchesES9_
FNDA:0,_ZNK7testing8internal11MatcherBaseIRKNSt7__cxx1112basic_stringIcSt11char_traitsIcESaIcEEEE10DescribeToEPSo
FNDA:0,_ZNK7testing8internal11MatcherBaseIRKNSt7__cxx1112basic_stringIcSt11char_traitsIcESaIcEEEE18DescribeNegationToEPSo
FNDA:20,_ZN7testing8internal11MatcherBaseIRKNSt7__cxx1112basic_stringIcSt11char_traitsIcESaIcEEEEC2IS9_EEPKNS_16MatcherInterfaceIT_EE
FNDA:8,_ZN7testing8internal11MatcherBaseIRKNSt7__cxx1112basic_stringIcSt11char_traitsIcESaIcEEEEC2ERKSA_
FNDA:0,_ZN7testing8internal11MatcherBaseIRKNSt7__cxx1112basic_stringIcSt11char_traitsIcESaIcEEEED0Ev
FNDA:31,_ZN7testing8internal11MatcherBaseIRKNSt7__cxx1112basic_stringIcSt11char_traitsIcESaIcEEEED2Ev
FNDA:42,_ZNK7testing8internal11MatcherBaseIRKNSt7__cxx1112basic_stringIcSt11char_traitsIcESaIcEEEE8IsSharedEv
FNDA:20,_ZN7testing8internal11MatcherBaseIRKNSt7__cxx1112basic_stringIcSt11char_traitsIcESaIcEEEE19MatchAndExplainImplINSA_11ValuePolicyIPKNS_16MatcherInterfaceIS9_EELb1EEEEEDTcldtclsrT_3Getfp_E15MatchAndExplainfp0_fp1_EERKSA_S9_PNS_19MatchResultListenerE
FNDA:0,_ZN7testing8internal11MatcherBaseIRKNSt7__cxx1112basic_stringIcSt11char_traitsIcESaIcEEEE12DescribeImplINSA_11ValuePolicyIPKNS_16MatcherInterfaceIS9_EELb1EEEEEvRKSA_PSob
FNDA:0,_ZN7testing8internal11MatcherBaseIRKNSt7__cxx1112basic_stringIcSt11char_traitsIcESaIcEEEE16GetDescriberImplINSA_11ValuePolicyIPKNS_16MatcherInterfaceIS9_EELb1EEEEEPKNS_25MatcherDescriberInterfaceERKSA_
FNDA:20,_ZN7testing8internal11MatcherBaseIRKNSt7__cxx1112basic_stringIcSt11char_traitsIcESaIcEEEE9GetVTableINSA_11ValuePolicyIPKNS_16MatcherInterfaceIS9_EELb1EEEEEPKNSA_6VTableEv
FNDA:34,_ZN7testing8internal11MatcherBaseIRKNSt7__cxx1112basic_stringIcSt11char_traitsIcESaIcEEEE7DestroyEv
FNDA:20,_ZN7testing8internal11MatcherBaseIRKNSt7__cxx1112basic_stringIcSt11char_traitsIcESaIcEEEE11ValuePolicyIPKNS_16MatcherInterfaceIS9_EELb1EE3GetERKSA_
FNDA:20,_ZN7testing8internal11MatcherBaseIRKNSt7__cxx1112basic_stringIcSt11char_traitsIcESaIcEEEE11ValuePolicyIPKNS_16MatcherInterfaceIS9_EELb1EE4InitERSA_SF_
FNDA:20,_ZN7testing8internal11MatcherBaseIRKNSt7__cxx1112basic_stringIcSt11char_traitsIcESaIcEEEE4InitIRPKNS_16MatcherInterfaceIS9_EEEEvOT_
FNDA:20,_ZN7testing7MatcherIRKNSt7__cxx1112basic_stringIcSt11char_traitsIcESaIcEEEEC2EPKNS_16MatcherInterfaceIS8_EE
FNDA:1,_ZN7testing18PolymorphicMatcherINS_8internal15EndsWithMatcherINSt7__cxx1112basic_stringIcSt11char_traitsIcESaIcEEEEEEC2ERKS9_
FNDA:5,_ZN7testing18PolymorphicMatcherINS_8internal16HasSubstrMatcherINSt7__cxx1112basic_stringIcSt11char_traitsIcESaIcEEEEEEC2ERKS9_
FNDA:1,_ZN7testing18PolymorphicMatcherINS_8internal17StartsWithMatcherINSt7__cxx1112basic_stringIcSt11char_traitsIcESaIcEEEEEEC2ERKS9_
FNDA:3,_ZN7testing18PolymorphicMatcherINS_8internal18StrEqualityMatcherINSt7__cxx1112basic_stringIcSt11char_traitsIcESaIcEEEEEEC2ERKS9_
FNDA:2,_ZN7testing18PolymorphicMatcherINS_8internal19MatchesRegexMatcherEEC2ERKS2_
FNDA:1,_ZNK7testing18PolymorphicMatcherINS_8internal15EndsWithMatcherINSt7__cxx1112basic_stringIcSt11char_traitsIcESaIcEEEEEEcvNS_7MatcherIT_EEIRKS8_EEv
FNDA:5,_ZNK7testing18PolymorphicMatcherINS_8internal16HasSubstrMatcherINSt7__cxx1112basic_stringIcSt11char_traitsIcESaIcEEEEEEcvNS_7MatcherIT_EEIRKS8_EEv
FNDA:1,_ZNK7testing18PolymorphicMatcherINS_8internal17StartsWithMatcherINSt7__cxx1112basic_stringIcSt11char_traitsIcESaIcEEEEEEcvNS_7MatcherIT_EEIRKS8_EEv
FNDA:3,_ZNK7testing18PolymorphicMatcherINS_8internal18StrEqualityMatcherINSt7__cxx1112basic_stringIcSt11char_traitsIcESaIcEEEEEEcvNS_7MatcherIT_EEIRKS8_EEv
FNDA:2,_ZNK7testing18PolymorphicMatcherINS_8internal19MatchesRegexMatcherEEcvNS_7MatcherIT_EEIRKNSt7__cxx1112basic_stringIcSt11char_traitsIcESaIcEEEEEv
FNDA:1,_ZN7testing18PolymorphicMatcherINS_8internal15EndsWithMatcherINSt7__cxx1112basic_stringIcSt11char_traitsIcESaIcEEEEEE15MonomorphicImplIRKS8_EC2ERKS9_
FNDA:5,_ZN7testing18PolymorphicMatcherINS_8internal16HasSubstrMatcherINSt7__cxx1112basic_stringIcSt11char_traitsIcESaIcEEEEEE15MonomorphicImplIRKS8_EC2ERKS9_
FNDA:1,_ZN7testing18PolymorphicMatcherINS_8internal17StartsWithMatcherINSt7__cxx1112basic_stringIcSt11char_traitsIcESaIcEEEEEE15MonomorphicImplIRKS8_EC2ERKS9_
FNDA:3,_ZN7testing18PolymorphicMatcherINS_8internal18StrEqualityMatcherINSt7__cxx1112basic_stringIcSt11char_traitsIcESaIcEEEEEE15MonomorphicImplIRKS8_EC2ERKS9_
FNDA:2,_ZN7testing18PolymorphicMatcherINS_8internal19MatchesRegexMatcherEE15MonomorphicImplIRKNSt7__cxx1112basic_stringIcSt11char_traitsIcESaIcEEEEC2ERKS2_
FNDA:0,_ZNK7testing18PolymorphicMatcherINS_8internal15EndsWithMatcherINSt7__cxx1112basic_stringIcSt11char_traitsIcESaIcEEEEEE15MonomorphicImplIRKS8_E10DescribeToEPSo
FNDA:0,_ZNK7testing18PolymorphicMatcherINS_8internal16HasSubstrMatcherINSt7__cxx1112basic_stringIcSt11char_traitsIcESaIcEEEEEE15MonomorphicImplIRKS8_E10DescribeToEPSo
FNDA:0,_ZNK7testing18PolymorphicMatcherINS_8internal17StartsWithMatcherINSt7__cxx1112basic_stringIcSt11char_traitsIcESaIcEEEEEE15MonomorphicImplIRKS8_E10DescribeToEPSo
FNDA:0,_ZNK7testing18PolymorphicMatcherINS_8internal18StrEqualityMatcherINSt7__cxx1112basic_stringIcSt11char_traitsIcESaIcEEEEEE15MonomorphicImplIRKS8_E10DescribeToEPSo
FNDA:0,_ZNK7testing18PolymorphicMatcherINS_8internal19MatchesRegexMatcherEE15MonomorphicImplIRKNSt7__cxx1112basic_stringIcSt11char_traitsIcESaIcEEEE10DescribeToEPSo
FNDA:0,_ZNK7testing18PolymorphicMatcherINS_8internal15EndsWithMatcherINSt7__cxx1112basic_stringIcSt11char_traitsIcESaIcEEEEEE15MonomorphicImplIRKS8_E18DescribeNegationToEPSo
FNDA:0,_ZNK7testing18PolymorphicMatcherINS_8internal16HasSubstrMatcherINSt7__cxx1112basic_stringIcSt11char_traitsIcESaIcEEEEEE15MonomorphicImplIRKS8_E18DescribeNegationToEPSo
FNDA:0,_ZNK7testing18PolymorphicMatcherINS_8internal17StartsWithMatcherINSt7__cxx1112basic_stringIcSt11char_traitsIcESaIcEEEEEE15MonomorphicImplIRKS8_E18DescribeNegationToEPSo
FNDA:0,_ZNK7testing18PolymorphicMatcherINS_8internal18StrEqualityMatcherINSt7__cxx1112basic_stringIcSt11char_traitsIcESaIcEEEEEE15MonomorphicImplIRKS8_E18DescribeNegationToEPSo
FNDA:0,_ZNK7testing18PolymorphicMatcherINS_8internal19MatchesRegexMatcherEE15MonomorphicImplIRKNSt7__cxx1112basic_stringIcSt11char_traitsIcESaIcEEEE18DescribeNegationToEPSo
FNDA:1,_ZNK7testing18PolymorphicMatcherINS_8internal15EndsWithMatcherINSt7__cxx1112basic_stringIcSt11char_traitsIcESaIcEEEEEE15MonomorphicImplIRKS8_E15MatchAndExplainESD_PNS_19MatchResultListenerE
FNDA:5,_ZNK7testing18PolymorphicMatcherINS_8internal16HasSubstrMatcherINSt7__cxx1112basic_stringIcSt11char_traitsIcESaIcEEEEEE15MonomorphicImplIRKS8_E15MatchAndExplainESD_PNS_19MatchResultListenerE
FNDA:1,_ZNK7testing18PolymorphicMatcherINS_8internal17StartsWithMatcherINSt7__cxx1112basic_stringIcSt11char_traitsIcESaIcEEEEEE15MonomorphicImplIRKS8_E15MatchAndExplainESD_PNS_19MatchResultListenerE
FNDA:3,_ZNK7testing18PolymorphicMatcherINS_8internal18StrEqualityMatcherINSt7__cxx1112basic_stringIcSt11char_traitsIcESaIcEEEEEE15MonomorphicImplIRKS8_E15MatchAndExplainESD_PNS_19MatchResultListenerE
FNDA:2,_ZNK7testing18PolymorphicMatcherINS_8internal19MatchesRegexMatcherEE15MonomorphicImplIRKNSt7__cxx1112basic_stringIcSt11char_traitsIcESaIcEEEE15MatchAndExplainESC_PNS_19MatchResultListenerE
FNDA:1,_ZN7testing22MakePolymorphicMatcherINS_8internal15EndsWithMatcherINSt7__cxx1112basic_stringIcSt11char_traitsIcESaIcEEEEEEENS_18PolymorphicMatcherIT_EERKSB_
FNDA:5,_ZN7testing22MakePolymorphicMatcherINS_8internal16HasSubstrMatcherINSt7__cxx1112basic_stringIcSt11char_traitsIcESaIcEEEEEEENS_18PolymorphicMatcherIT_EERKSB_
FNDA:1,_ZN7testing22MakePolymorphicMatcherINS_8internal17StartsWithMatcherINSt7__cxx1112basic_stringIcSt11char_traitsIcESaIcEEEEEEENS_18PolymorphicMatcherIT_EERKSB_
FNDA:3,_ZN7testing22MakePolymorphicMatcherINS_8internal18StrEqualityMatcherINSt7__cxx1112basic_stringIcSt11char_traitsIcESaIcEEEEEEENS_18PolymorphicMatcherIT_EERKSB_
FNDA:2,_ZN7testing22MakePolymorphicMatcherINS_8internal19MatchesRegexMatcherEEENS_18PolymorphicMatcherIT_EERKS4_
FNDA:2,_ZN7testing8internal19MatchesRegexMatcherC2EPKNS0_2REEb
FNDA:2,_ZNK7testing8internal19MatchesRegexMatcher15MatchAndExplainINSt7__cxx1112basic_stringIcSt11char_traitsIcESaIcEEEEEbRKT_PNS_19MatchResultListenerE
FNDA:0,_ZNK7testing8internal19MatchesRegexMatcher10DescribeToEPSo
FNDA:0,_ZNK7testing8internal19MatchesRegexMatcher18DescribeNegationToEPSo
FNDA:15,_ZN7testing19MatchResultListenerC2EPSo
FNDA:2,_ZN7testing12MatchesRegexEPKNS_8internal2REE
FNDA:1,_ZN7testing12MatchesRegexIA10_cEENS_18PolymorphicMatcherINS_8internal19MatchesRegexMatcherEEERKT_
FNDA:1,_ZN7testing12MatchesRegexIA5_cEENS_18PolymorphicMatcherINS_8internal19MatchesRegexMatcherEEERKT_
FNDA:0,_ZN7testing19MatchResultListener6streamEv
FNF:73
FNH:51
BRDA:218,0,0,20
BRDA:218,0,1,0
BRDA:233,0,0,0
BRDA:233,0,1,23
BRDA:233,0,2,0
BRDA:233,e0,3,0
BRDA:233,0,4,0
BRDA:233,e0,5,0
BRDA:240,0,0,15
BRDA:240,e0,1,0
BRDA:245,0,0,-
BRDA:245,0,1,-
BRDA:245,0,2,-
BRDA:245,e0,3,-
BRDA:245,0,4,-
BRDA:245,e0,5,-
BRDA:251,0,0,-
BRDA:251,0,1,-
BRDA:251,0,2,-
BRDA:251,e0,3,-
BRDA:251,0,4,-
BRDA:251,e0,5,-
BRDA:276,0,0,20
BRDA:276,e0,1,0
BRDA:287,0,0,8
BRDA:287,0,1,0
BRDA:328,0,0,39
BRDA:328,0,1,3
BRDA:328,0,2,39
BRDA:328,0,3,0
BRDA:349,0,0,-
BRDA:349,0,1,-
BRDA:390,0,0,31
BRDA:390,0,1,3
BRDA:390,0,2,23
BRDA:390,0,3,8
BRDA:390,0,4,23
BRDA:390,0,5,11
BRDA:631,0,0,12
BRDA:631,e0,1,0
BRDA:631,0,2,10
BRDA:631,0,3,0
BRDA:631,0,4,0
BRDA:631,0,5,0
BRDA:638,0,0,10
BRDA:638,e0,1,0
BRDA:812,0,0,2
BRDA:812,e0,1,0
BRDA:813,0,0,2
BRDA:813,0,1,0
BRDA:813,0,2,2
BRDA:813,e0,3,0
BRDA:814,0,0,0
BRDA:814,e0,1,0
BRDA:818,0,0,-
BRDA:818,0,1,-
BRDA:819,0,0,-
BRDA:819,e0,1,-
BRDA:819,0,2,-
BRDA:819,e0,3,-
BRDA:824,0,0,-
BRDA:824,0,1,-
BRDA:825,0,0,-
BRDA:825,e0,1,-
BRDA:825,0,2,-
BRDA:825,e0,3,-
BRDA:838,0,0,2
BRDA:838,e0,1,0
BRDA:838,0,2,2
BRDA:838,e0,3,0
BRDA:843,0,0,2
BRDA:843,e0,1,0
BRDA:843,0,2,2
BRDA:843,e0,3,0
BRDA:843,0,4,2
BRDA:843,e0,5,0
BRDA:843,0,6,0
BRDA:843,0,7,0
BRF:78
BRH:25
DA:83,15
DA:95,0
DA:101,0
DA:110,15
DA:116,51
DA:131,0
DA:132,0
DA:133,0
DA:134,0
DA:135,0
DA:185,15
DA:208,8
DA:209,62
DA:215,20
DA:217,20
DA:218,20
DA:219,20
DA:232,23
DA:233,23
DA:234,23
DA:238,15
DA:239,15
DA:240,30
DA:241,15
DA:244,0
DA:245,0
DA:246,0
DA:247,0
DA:250,0
DA:251,0
DA:252,0
DA:253,0
DA:274,20
DA:275,20
DA:276,20
DA:277,20
DA:285,8
DA:286,8
DA:287,8
DA:288,8
DA:313,31
DA:327,42
DA:328,42
DA:340,20
DA:343,20
DA:347,0
DA:349,0
DA:350,0
DA:352,0
DA:354,0
DA:357,0
DA:369,0
DA:373,20
DA:377,20
DA:389,34
DA:390,34
DA:391,23
DA:393,34
DA:434,20
DA:435,20
DA:437,20
DA:438,20
DA:439,20
DA:445,20
DA:448,20
DA:449,20
DA:450,20
DA:499,20
DA:500,20
DA:619,12
DA:630,12
DA:631,12
DA:638,12
DA:640,0
DA:642,0
DA:643,0
DA:644,0
DA:646,12
DA:647,12
DA:676,12
DA:677,12
DA:785,2
DA:786,2
DA:810,2
DA:812,2
DA:813,2
DA:814,2
DA:815,2
DA:817,0
DA:818,0
DA:819,0
DA:820,0
DA:822,0
DA:823,0
DA:824,0
DA:825,0
DA:826,0
DA:836,2
DA:838,2
DA:841,2
DA:843,6
LF:101
LH:66
end_of_record
TN:
SF:/usr/include/gtest/gtest-message.h
FN:132,150,_ZN7testing7MessagelsIA12_cEERS0_RKT_
FN:132,150,_ZN7testing7MessagelsIA3_cEERS0_RKT_
FN:132,150,_ZN7testing7MessagelsIA5_cEERS0_RKT_
FN:132,150,_ZN7testing7MessagelsINSt7__cxx1112basic_stringIcSt11char_traitsIcESaIcEEEEERS0_RKT_
FN:181,188,_ZN7testing7MessagelsIKcEERS0_RKPT_
FNDA:0,_ZN7testing7MessagelsIA12_cEERS0_RKT_
FNDA:0,_ZN7testing7MessagelsIA3_cEERS0_RKT_
FNDA:0,_ZN7testing7MessagelsIA5_cEERS0_RKT_
FNDA:0,_ZN7testing7MessagelsINSt7__cxx1112basic_stringIcSt11char_traitsIcESaIcEEEEERS0_RKT_
FNDA:0,_ZN7testing7MessagelsIKcEERS0_RKPT_
FNF:5
FNH:0
BRDA:182,0,0,-
BRDA:182,0,1,-
BRF:2
BRH:0
DA:132,0
DA:148,0
DA:149,0
DA:181,0
DA:182,0
DA:183,0
DA:185,0
DA:187,0
LF:8
LH:0
end_of_record
TN:
SF:/usr/include/gtest/gtest-printers.h
FN:1025,1027,_ZN7testing8internal21UniversalTersePrinterINSt7__cxx1112basic_stringIcSt11char_traitsIcESaIcEEEE5PrintERKS7_PSo
FN:1025,1027,_ZN7testing8internal21UniversalTersePrinterIbE5PrintERKbPSo
FN:1025,1027,_ZN7testing8internal21UniversalTersePrinterIiE5PrintERKiPSo
FN:1025,1027,_ZN7testing8internal21UniversalTersePrinterImE5PrintERKmPSo
FN:1053,1059,_ZN7testing8internal21UniversalTersePrinterIPKcE5PrintES3_PSo
FN:1144,1149,_ZN7testing8internal14UniversalPrintINSt7__cxx1112basic_stringIcSt11char_traitsIcESaIcEEEEEvRKT_PSo
FN:1144,1149,_ZN7testing8internal14UniversalPrintIbEEvRKT_PSo
FN:1144,1149,_ZN7testing8internal14UniversalPrintIiEEvRKT_PSo
FN:1144,1149,_ZN7testing8internal14UniversalPrintImEEvRKT_PSo
FN:1184,1188,_ZN7testing13PrintToStringINSt7__cxx1112basic_stringIcSt11char_traitsIcESaIcEEEEES6_RKT_
FN:1184,1188,_ZN7testing13PrintToStringIPKcEENSt7__cxx1112basic_stringIcSt11char_traitsIcESaIcEEERKT_
FN:1184,1188,_ZN7testing13PrintToStringIbEENSt7__cxx1112basic_stringIcSt11char_traitsIcESaIcEEERKT_
FN:1184,1188,_ZN7testing13PrintToStringIiEENSt7__cxx1112basic_stringIcSt11char_traitsIcESaIcEEERKT_
FN:1184,1188,_ZN7testing13PrintToStringImEENSt7__cxx1112basic_stringIcSt11char_traitsIcESaIcEEERKT_
FN:244,249,_ZN7testing8internal52internal_stream_operator_without_lexical_name_lookup13StreamPrinter10PrintValueIivEEDTcvvlsdefp0_fp_ERKT_PSo
FN:244,249,_ZN7testing8internal52internal_stream_operator_without_lexical_name_lookup13StreamPrinter10PrintValueImvEEDTcvvlsdefp0_fp_ERKT_PSo
FN:348,359,_ZN7testing8internal17PrintWithFallbackIiEEvRKT_PSo
FN:348,359,_ZN7testing8internal17PrintWithFallbackImEEvRKT_PSo
FN:379,381,_ZN7testing8internal19FormatForComparisonINSt7__cxx1112basic_stringIcSt11char_traitsIcESaIcEEEA11_cE6FormatERKS7_
FN:379,381,_ZN7testing8internal19FormatForComparisonINSt7__cxx1112basic_stringIcSt11char_traitsIcESaIcEEEA5_cE6FormatERKS7_
FN:379,381,_ZN7testing8internal19FormatForComparisonINSt7__cxx1112basic_stringIcSt11char_traitsIcESaIcEEEA7_cE6FormatERKS7_
FN:379,381,_ZN7testing8internal19FormatForComparisonINSt7__cxx1112basic_stringIcSt11char_traitsIcESaIcEEEA8_cE6FormatERKS7_
FN:379,381,_ZN7testing8internal19FormatForComparisonINSt7__cxx1112basic_stringIcSt11char_traitsIcESaIcEEES7_E6FormatERKS7_
FN:379,381,_ZN7testing8internal19FormatForComparisonIbbE6FormatB5cxx11ERKb
FN:379,381,_ZN7testing8internal19FormatForComparisonIiiE6FormatB5cxx11ERKi
FN:379,381,_ZN7testing8internal19FormatForComparisonIimE6FormatB5cxx11ERKi
FN:379,381,_ZN7testing8internal19FormatForComparisonImiE6FormatB5cxx11ERKm
FN:388,390,_ZN7testing8internal19FormatForComparisonIA11_cNSt7__cxx1112basic_stringIcSt11char_traitsIcESaIcEEEE6FormatEPKc
FN:388,390,_ZN7testing8internal19FormatForComparisonIA5_cNSt7__cxx1112basic_stringIcSt11char_traitsIcESaIcEEEE6FormatEPKc
FN:388,390,_ZN7testing8internal19FormatForComparisonIA7_cNSt7__cxx1112basic_stringIcSt11char_traitsIcESaIcEEEE6FormatEPKc
FN:388,390,_ZN7testing8internal19FormatForComparisonIA8_cNSt7__cxx1112basic_stringIcSt11char_traitsIcESaIcEEEE6FormatEPKc
FN:433,433,_ZN7testing8internal19FormatForComparisonIPKcNSt7__cxx1112basic_stringIcSt11char_traitsIcESaIcEEEE6FormatES3_
FN:459,462,_ZN7testing8internal33FormatForComparisonFailureMessageIA11_cNSt7__cxx1112basic_stringIcSt11char_traitsIcESaIcEEEEES8_RKT_RKT0_
FN:459,462,_ZN7testing8internal33FormatForComparisonFailureMessageIA5_cNSt7__cxx1112basic_stringIcSt11char_traitsIcESaIcEEEEES8_RKT_RKT0_
FN:459,462,_ZN7testing8internal33FormatForComparisonFailureMessageIA7_cNSt7__cxx1112basic_stringIcSt11char_traitsIcESaIcEEEEES8_RKT_RKT0_
FN:459,462,_ZN7testing8internal33FormatForComparisonFailureMessageIA8_cNSt7__cxx1112basic_stringIcSt11char_traitsIcESaIcEEEEES8_RKT_RKT0_
FN:459,462,_ZN7testing8internal33FormatForComparisonFailureMessageINSt7__cxx1112basic_stringIcSt11char_traitsIcESaIcEEEA11_cEES7_RKT_RKT0_
FN:459,462,_ZN7testing8internal33FormatForComparisonFailureMessageINSt7__cxx1112basic_stringIcSt11char_traitsIcESaIcEEEA5_cEES7_RKT_RKT0_
FN:459,462,_ZN7testing8internal33FormatForComparisonFailureMessageINSt7__cxx1112basic_stringIcSt11char_traitsIcESaIcEEEA7_cEES7_RKT_RKT0_
FN:459,462,_ZN7testing8internal33FormatForComparisonFailureMessageINSt7__cxx1112basic_stringIcSt11char_traitsIcESaIcEEEA8_cEES7_RKT_RKT0_
FN:459,462,_ZN7testing8internal33FormatForComparisonFailureMessageINSt7__cxx1112basic_stringIcSt11char_traitsIcESaIcEEES7_EES7_RKT_RKT0_
FN:459,462,_ZN7testing8internal33FormatForComparisonFailureMessageIbbEENSt7__cxx1112basic_stringIcSt11char_traitsIcESaIcEEERKT_RKT0_
FN:459,462,_ZN7testing8internal33FormatForComparisonFailureMessageIiiEENSt7__cxx1112basic_stringIcSt11char_traitsIcESaIcEEERKT_RKT0_
FN:459,462,_ZN7testing8internal33FormatForComparisonFailureMessageIimEENSt7__cxx1112basic_stringIcSt11char_traitsIcESaIcEEERKT_RKT0_
FN:459,462,_ZN7testing8internal33FormatForComparisonFailureMessageImiEENSt7__cxx1112basic_stringIcSt11char_traitsIcESaIcEEERKT_RKT0_
FN:486,488,_ZN7testing8internal7PrintToIiEEvRKT_PSo
FN:486,488,_ZN7testing8internal7PrintToImEEvRKT_PSo
FN:505,507,_ZN7testing8internal7PrintToEbPSo
FN:696,698,_ZN7testing8internal7PrintToERKNSt7__cxx1112basic_stringIcSt11char_traitsIcESaIcEEEPSo
FN:835,845,_ZN7testing8internal16UniversalPrinterINSt7__cxx1112basic_stringIcSt11char_traitsIcESaIcEEEE5PrintERKS7_PSo
FN:835,845,_ZN7testing8internal16UniversalPrinterIbE5PrintERKbPSo
FN:835,845,_ZN7testing8internal16UniversalPrinterIiE5PrintERKiPSo
FN:835,845,_ZN7testing8internal16UniversalPrinterImE5PrintERKmPSo
FNDA:0,_ZN7testing8internal21UniversalTersePrinterINSt7__cxx1112basic_stringIcSt11char_traitsIcESaIcEEEE5PrintERKS7_PSo
FNDA:0,_ZN7testing8internal21UniversalTersePrinterIbE5PrintERKbPSo
FNDA:0,_ZN7testing8internal21UniversalTersePrinterIiE5PrintERKiPSo
FNDA:0,_ZN7testing8internal21UniversalTersePrinterImE5PrintERKmPSo
FNDA:0,_ZN7testing8internal21UniversalTersePrinterIPKcE5PrintES3_PSo
FNDA:0,_ZN7testing8internal14UniversalPrintINSt7__cxx1112basic_stringIcSt11char_traitsIcESaIcEEEEEvRKT_PSo
FNDA:0,_ZN7testing8internal14UniversalPrintIbEEvRKT_PSo
FNDA:0,_ZN7testing8internal14UniversalPrintIiEEvRKT_PSo
FNDA:0,_ZN7testing8internal14UniversalPrintImEEvRKT_PSo
FNDA:0,_ZN7testing13PrintToStringINSt7__cxx1112basic_stringIcSt11char_traitsIcESaIcEEEEES6_RKT_
FNDA:0,_ZN7testing13PrintToStringIPKcEENSt7__cxx1112basic_stringIcSt11char_traitsIcESaIcEEERKT_
FNDA:0,_ZN7testing13PrintToStringIbEENSt7__cxx1112basic_stringIcSt11char_traitsIcESaIcEEERKT_
FNDA:0,_ZN7testing13PrintToStringIiEENSt7__cxx1112basic_stringIcSt11char_traitsIcESaIcEEERKT_
FNDA:0,_ZN7testing13PrintToStringImEENSt7__cxx1112basic_stringIcSt11char_traitsIcESaIcEEERKT_
FNDA:0,_ZN7testing8internal52internal_stream_operator_without_lexical_name_lookup13StreamPrinter10PrintValueIivEEDTcvvlsdefp0_fp_ERKT_PSo
FNDA:0,_ZN7testing8internal52internal_stream_operator_without_lexical_name_lookup13StreamPrinter10PrintValueImvEEDTcvvlsdefp0_fp_ERKT_PSo
FNDA:0,_ZN7testing8internal17PrintWithFallbackIiEEvRKT_PSo
FNDA:0,_ZN7testing8internal17PrintWithFallbackImEEvRKT_PSo
FNDA:0,_ZN7testing8internal19FormatForComparisonINSt7__cxx1112basic_stringIcSt11char_traitsIcESaIcEEEA11_cE6FormatERKS7_
FNDA:0,_ZN7testing8internal19FormatForComparisonINSt7__cxx1112basic_stringIcSt11char_traitsIcESaIcEEEA5_cE6FormatERKS7_
FNDA:0,_ZN7testing8internal19FormatForComparisonINSt7__cxx1112basic_stringIcSt11char_traitsIcESaIcEEEA7_cE6FormatERKS7_
FNDA:0,_ZN7testing8internal19FormatForComparisonINSt7__cxx1112basic_stringIcSt11char_traitsIcESaIcEEEA8_cE6FormatERKS7_
FNDA:0,_ZN7testing8internal19FormatForComparisonINSt7__cxx1112basic_stringIcSt11char_traitsIcESaIcEEES7_E6FormatERKS7_
FNDA:0,_ZN7testing8internal19FormatForComparisonIbbE6FormatB5cxx11ERKb
FNDA:0,_ZN7testing8internal19FormatForComparisonIiiE6FormatB5cxx11ERKi
FNDA:0,_ZN7testing8internal19FormatForComparisonIimE6FormatB5cxx11ERKi
FNDA:0,_ZN7testing8internal19FormatForComparisonImiE6FormatB5cxx11ERKm
FNDA:0,_ZN7testing8internal19FormatForComparisonIA11_cNSt7__cxx1112basic_stringIcSt11char_traitsIcESaIcEEEE6FormatEPKc
FNDA:0,_ZN7testing8internal19FormatForComparisonIA5_cNSt7__cxx1112basic_stringIcSt11char_traitsIcESaIcEEEE6FormatEPKc
FNDA:0,_ZN7testing8internal19FormatForComparisonIA7_cNSt7__cxx1112basic_stringIcSt11char_traitsIcESaIcEEEE6FormatEPKc
FNDA:0,_ZN7testing8internal19FormatForComparisonIA8_cNSt7__cxx1112basic_stringIcSt11char_traitsIcESaIcEEEE6FormatEPKc
FNDA:0,_ZN7testing8internal19FormatForComparisonIPKcNSt7__cxx1112basic_stringIcSt11char_traitsIcESaIcEEEE6FormatES3_
FNDA:0,_ZN7testing8internal33FormatForComparisonFailureMessageIA11_cNSt7__cxx1112basic_stringIcSt11char_traitsIcESaIcEEEEES8_RKT_RKT0_
FNDA:0,_ZN7testing8internal33FormatForComparisonFailureMessageIA5_cNSt7__cxx1112basic_stringIcSt11char_traitsIcESaIcEEEEES8_RKT_RKT0_
FNDA:0,_ZN7testing8internal33FormatForComparisonFailureMessageIA7_cNSt7__cxx1112basic_stringIcSt11char_traitsIcESaIcEEEEES8_RKT_RKT0_
FNDA:0,_ZN7testing8internal33FormatForComparisonFailureMessageIA8_cNSt7__cxx1112basic_stringIcSt11char_traitsIcESaIcEEEEES8_RKT_RKT0_
FNDA:0,_ZN7testing8internal33FormatForComparisonFailureMessageINSt7__cxx1112basic_stringIcSt11char_traitsIcESaIcEEEA11_cEES7_RKT_RKT0_
FNDA:0,_ZN7testing8internal33FormatForComparisonFailureMessageINSt7__cxx1112basic_stringIcSt11char_traitsIcESaIcEEEA5_cEES7_RKT_RKT0_
FNDA:0,_ZN7testing8internal33FormatForComparisonFailureMessageINSt7__cxx1112basic_stringIcSt11char_traitsIcESaIcEEEA7_cEES7_RKT_RKT0_
FNDA:0,_ZN7testing8internal33FormatForComparisonFailureMessageINSt7__cxx1112basic_stringIcSt11char_traitsIcESaIcEEEA8_cEES7_RKT_RKT0_
FNDA:0,_ZN7testing8internal33FormatForComparisonFailureMessageINSt7__cxx1112basic_stringIcSt11char_traitsIcESaIcEEES7_EES7_RKT_RKT0_
FNDA:0,_ZN7testing8internal33FormatForComparisonFailureMessageIbbEENSt7__cxx1112basic_stringIcSt11char_traitsIcESaIcEEERKT_RKT0_
FNDA:0,_ZN7testing8internal33FormatForComparisonFailureMessageIiiEENSt7__cxx1112basic_stringIcSt11char_traitsIcESaIcEEERKT_RKT0_
FNDA:0,_ZN7testing8internal33FormatForComparisonFailureMessageIimEENSt7__cxx1112basic_stringIcSt11char_traitsIcESaIcEEERKT_RKT0_
FNDA:0,_ZN7testing8internal33FormatForComparisonFailureMessageImiEENSt7__cxx1112basic_stringIcSt11char_traitsIcESaIcEEERKT_RKT0_
FNDA:0,_ZN7testing8internal7PrintToIiEEvRKT_PSo
FNDA:0,_ZN7testing8internal7PrintToImEEvRKT_PSo
FNDA:0,_ZN7testing8internal7PrintToEbPSo
FNDA:0,_ZN7testing8internal7PrintToERKNSt7__cxx1112basic_stringIcSt11char_traitsIcESaIcEEEPSo
FNDA:0,_ZN7testing8internal16UniversalPrinterINSt7__cxx1112basic_stringIcSt11char_traitsIcESaIcEEEE5PrintERKS7_PSo
FNDA:0,_ZN7testing8internal16UniversalPrinterIbE5PrintERKbPSo
FNDA:0,_ZN7testing8internal16UniversalPrinterIiE5PrintERKiPSo
FNDA:0,_ZN7testing8internal16UniversalPrinterImE5PrintERKmPSo
FNF:53
FNH:0
BRDA:506,0,0,-
BRDA:506,0,1,-
BRDA:1054,0,0,-
BRDA:1054,0,1,-
BRDA:1057,0,0,-
BRDA:1057,e0,1,-
BRDA:1057,0,2,-
BRDA:1057,e0,3,-
BRDA:1185,0,0,-
BRDA:1185,e0,1,-
BRDA:1186,0,0,-
BRDA:1186,e0,1,-
BRDA:1187,0,0,-
BRDA:1187,e0,1,-
BRF:14
BRH:0
DA:244,0
DA:248,0
DA:249,0
DA:348,0
DA:358,0
DA:359,0
DA:379,0
DA:380,0
DA:388,0
DA:389,0
DA:433,0
DA:459,0
DA:461,0
DA:486,0
DA:487,0
DA:488,0
DA:505,0
DA:506,0
DA:507,0
DA:696,0
DA:697,0
DA:698,0
DA:835,0
DA:844,0
DA:845,0
DA:1025,0
DA:1026,0
DA:1027,0
DA:1053,0
DA:1054,0
DA:1055,0
DA:1057,0
DA:1059,0
DA:1144,0
DA:1148,0
DA:1149,0
DA:1184,0
DA:1185,0
DA:1186,0
DA:1187,0
DA:1188,0
LF:41
LH:0
end_of_record
TN:
SF:/usr/include/gtest/gtest.h
FN:1374,1380,_ZN7testing8internal18CmpHelperEQFailureINSt7__cxx1112basic_stringIcSt11char_traitsIcESaIcEEEA11_cEENS_15AssertionResultEPKcSB_RKT_RKT0_
FN:1374,1380,_ZN7testing8internal18CmpHelperEQFailureINSt7__cxx1112basic_stringIcSt11char_traitsIcESaIcEEEA5_cEENS_15AssertionResultEPKcSB_RKT_RKT0_
FN:1374,1380,_ZN7testing8internal18CmpHelperEQFailureINSt7__cxx1112basic_stringIcSt11char_traitsIcESaIcEEEA7_cEENS_15AssertionResultEPKcSB_RKT_RKT0_
FN:1374,1380,_ZN7testing8internal18CmpHelperEQFailureINSt7__cxx1112basic_stringIcSt11char_traitsIcESaIcEEEA8_cEENS_15AssertionResultEPKcSB_RKT_RKT0_
FN:1374,1380,_ZN7testing8internal18CmpHelperEQFailureINSt7__cxx1112basic_stringIcSt11char_traitsIcESaIcEEES7_EENS_15AssertionResultEPKcSA_RKT_RKT0_
FN:1374,1380,_ZN7testing8internal18CmpHelperEQFailureIbbEENS_15AssertionResultEPKcS4_RKT_RKT0_
FN:1374,1380,_ZN7testing8internal18CmpHelperEQFailureIiiEENS_15AssertionResultEPKcS4_RKT_RKT0_
FN:1374,1380,_ZN7testing8internal18CmpHelperEQFailureImiEENS_15AssertionResultEPKcS4_RKT_RKT0_
FN:1391,1399,_ZN7testing8internal11CmpHelperEQINSt7__cxx1112basic_stringIcSt11char_traitsIcESaIcEEEA11_cEENS_15AssertionResultEPKcSB_RKT_RKT0_
FN:1391,1399,_ZN7testing8internal11CmpHelperEQINSt7__cxx1112basic_stringIcSt11char_traitsIcESaIcEEEA5_cEENS_15AssertionResultEPKcSB_RKT_RKT0_
FN:1391,1399,_ZN7testing8internal11CmpHelperEQINSt7__cxx1112basic_stringIcSt11char_traitsIcESaIcEEEA7_cEENS_15AssertionResultEPKcSB_RKT_RKT0_
FN:1391,1399,_ZN7testing8internal11CmpHelperEQINSt7__cxx1112basic_stringIcSt11char_traitsIcESaIcEEEA8_cEENS_15AssertionResultEPKcSB_RKT_RKT0_
FN:1391,1399,_ZN7testing8internal11CmpHelperEQINSt7__cxx1112basic_stringIcSt11char_traitsIcESaIcEEES7_EENS_15AssertionResultEPKcSA_RKT_RKT0_
FN:1391,1399,_ZN7testing8internal11CmpHelperEQIbbEENS_15AssertionResultEPKcS4_RKT_RKT0_
FN:1391,1399,_ZN7testing8internal11CmpHelperEQIiiEENS_15AssertionResultEPKcS4_RKT_RKT0_
FN:1391,1399,_ZN7testing8internal11CmpHelperEQImiEENS_15AssertionResultEPKcS4_RKT_RKT0_
FN:1410,1414,_ZN7testing8internal8EqHelper7CompareINSt7__cxx1112basic_stringIcSt11char_traitsIcESaIcEEEA11_cLPv0EEENS_15AssertionResultEPKcSD_RKT_RKT0_
FN:1410,1414,_ZN7testing8internal8EqHelper7CompareINSt7__cxx1112basic_stringIcSt11char_traitsIcESaIcEEEA5_cLPv0EEENS_15AssertionResultEPKcSD_RKT_RKT0_
FN:1410,1414,_ZN7testing8internal8EqHelper7CompareINSt7__cxx1112basic_stringIcSt11char_traitsIcESaIcEEEA7_cLPv0EEENS_15AssertionResultEPKcSD_RKT_RKT0_
FN:1410,1414,_ZN7testing8internal8EqHelper7CompareINSt7__cxx1112basic_stringIcSt11char_traitsIcESaIcEEEA8_cLPv0EEENS_15AssertionResultEPKcSD_RKT_RKT0_
FN:1410,1414,_ZN7testing8internal8EqHelper7CompareINSt7__cxx1112basic_stringIcSt11char_traitsIcESaIcEEES8_LPv0EEENS_15AssertionResultEPKcSC_RKT_RKT0_
FN:1410,1414,_ZN7testing8internal8EqHelper7CompareIbbLPv0EEENS_15AssertionResultEPKcS6_RKT_RKT0_
FN:1410,1414,_ZN7testing8internal8EqHelper7CompareIiiLPv0EEENS_15AssertionResultEPKcS6_RKT_RKT0_
FN:1410,1414,_ZN7testing8internal8EqHelper7CompareImiLPv0EEENS_15AssertionResultEPKcS6_RKT_RKT0_
FN:1443,1450,_ZN7testing8internal18CmpHelperOpFailureINSt7__cxx1112basic_stringIcSt11char_traitsIcESaIcEEES7_EENS_15AssertionResultEPKcSA_RKT_RKT0_SA_
FN:1443,1450,_ZN7testing8internal18CmpHelperOpFailureIiiEENS_15AssertionResultEPKcS4_RKT_RKT0_S4_
FN:1472,1472,_ZN7testing8internal11CmpHelperNEINSt7__cxx1112basic_stringIcSt11char_traitsIcESaIcEEES7_EENS_15AssertionResultEPKcSA_RKT_RKT0_
FN:1472,1472,_ZN7testing8internal11CmpHelperNEIiiEENS_15AssertionResultEPKcS4_RKT_RKT0_
FN:1474,1474,_ZN7testing8internal11CmpHelperLEIiiEENS_15AssertionResultEPKcS4_RKT_RKT0_
FN:1476,1476,_ZN7testing8internal11CmpHelperLTINSt7__cxx1112basic_stringIcSt11char_traitsIcESaIcEEES7_EENS_15AssertionResultEPKcSA_RKT_RKT0_
FN:1476,1476,_ZN7testing8internal11CmpHelperLTIiiEENS_15AssertionResultEPKcS4_RKT_RKT0_
FN:1478,1478,_ZN7testing8internal11CmpHelperGEIiiEENS_15AssertionResultEPKcS4_RKT_RKT0_
FN:1480,1480,_ZN7testing8internal11CmpHelperGTINSt7__cxx1112basic_stringIcSt11char_traitsIcESaIcEEES7_EENS_15AssertionResultEPKcSA_RKT_RKT0_
FN:1480,1480,_ZN7testing8internal11CmpHelperGTIiiEENS_15AssertionResultEPKcS4_RKT_RKT0_
FN:2334,2334,_Z13RUN_ALL_TESTSv
FN:255,255,_ZN7testing4Test14SetUpTestSuiteEv
FN:263,263,_ZN7testing4Test17TearDownTestSuiteEv
FN:268,268,_ZN7testing4Test16TearDownTestCaseEv
FN:269,269,_ZN7testing4Test13SetUpTestCaseEv
FN:356,356,_ZN7testing4Test5SetupEv
FNDA:0,_ZN7testing8internal18CmpHelperEQFailureINSt7__cxx1112basic_stringIcSt11char_traitsIcESaIcEEEA11_cEENS_15AssertionResultEPKcSB_RKT_RKT0_
FNDA:0,_ZN7testing8internal18CmpHelperEQFailureINSt7__cxx1112basic_stringIcSt11char_traitsIcESaIcEEEA5_cEENS_15AssertionResultEPKcSB_RKT_RKT0_
FNDA:0,_ZN7testing8internal18CmpHelperEQFailureINSt7__cxx1112basic_stringIcSt11char_traitsIcESaIcEEEA7_cEENS_15AssertionResultEPKcSB_RKT_RKT0_
FNDA:0,_ZN7testing8internal18CmpHelperEQFailureINSt7__cxx1112basic_stringIcSt11char_traitsIcESaIcEEEA8_cEENS_15AssertionResultEPKcSB_RKT_RKT0_
FNDA:0,_ZN7testing8internal18CmpHelperEQFailureINSt7__cxx1112basic_stringIcSt11char_traitsIcESaIcEEES7_EENS_15AssertionResultEPKcSA_RKT_RKT0_
FNDA:0,_ZN7testing8internal18CmpHelperEQFailureIbbEENS_15AssertionResultEPKcS4_RKT_RKT0_
FNDA:0,_ZN7testing8internal18CmpHelperEQFailureIiiEENS_15AssertionResultEPKcS4_RKT_RKT0_
FNDA:0,_ZN7testing8internal18CmpHelperEQFailureImiEENS_15AssertionResultEPKcS4_RKT_RKT0_
FNDA:1,_ZN7testing8internal11CmpHelperEQINSt7__cxx1112basic_stringIcSt11char_traitsIcESaIcEEEA11_cEENS_15AssertionResultEPKcSB_RKT_RKT0_
FNDA:1,_ZN7testing8internal11CmpHelperEQINSt7__cxx1112basic_stringIcSt11char_traitsIcESaIcEEEA5_cEENS_15AssertionResultEPKcSB_RKT_RKT0_
FNDA:2,_ZN7testing8internal11CmpHelperEQINSt7__cxx1112basic_stringIcSt11char_traitsIcESaIcEEEA7_cEENS_15AssertionResultEPKcSB_RKT_RKT0_
FNDA:1,_ZN7testing8internal11CmpHelperEQINSt7__cxx1112basic_stringIcSt11char_traitsIcESaIcEEEA8_cEENS_15AssertionResultEPKcSB_RKT_RKT0_
FNDA:1,_ZN7testing8internal11CmpHelperEQINSt7__cxx1112basic_stringIcSt11char_traitsIcESaIcEEES7_EENS_15AssertionResultEPKcSA_RKT_RKT0_
FNDA:2,_ZN7testing8internal11CmpHelperEQIbbEENS_15AssertionResultEPKcS4_RKT_RKT0_
FNDA:48,_ZN7testing8internal11CmpHelperEQIiiEENS_15AssertionResultEPKcS4_RKT_RKT0_
FNDA:5,_ZN7testing8internal11CmpHelperEQImiEENS_15AssertionResultEPKcS4_RKT_RKT0_
FNDA:1,_ZN7testing8internal8EqHelper7CompareINSt7__cxx1112basic_stringIcSt11char_traitsIcESaIcEEEA11_cLPv0EEENS_15AssertionResultEPKcSD_RKT_RKT0_
FNDA:1,_ZN7testing8internal8EqHelper7CompareINSt7__cxx1112basic_stringIcSt11char_traitsIcESaIcEEEA5_cLPv0EEENS_15AssertionResultEPKcSD_RKT_RKT0_
FNDA:2,_ZN7testing8internal8EqHelper7CompareINSt7__cxx1112basic_stringIcSt11char_traitsIcESaIcEEEA7_cLPv0EEENS_15AssertionResultEPKcSD_RKT_RKT0_
FNDA:1,_ZN7testing8internal8EqHelper7CompareINSt7__cxx1112basic_stringIcSt11char_traitsIcESaIcEEEA8_cLPv0EEENS_15AssertionResultEPKcSD_RKT_RKT0_
FNDA:1,_ZN7testing8internal8EqHelper7CompareINSt7__cxx1112basic_stringIcSt11char_traitsIcESaIcEEES8_LPv0EEENS_15AssertionResultEPKcSC_RKT_RKT0_
FNDA:2,_ZN7testing8internal8EqHelper7CompareIbbLPv0EEENS_15AssertionResultEPKcS6_RKT_RKT0_
FNDA:48,_ZN7testing8internal8EqHelper7CompareIiiLPv0EEENS_15AssertionResultEPKcS6_RKT_RKT0_
FNDA:5,_ZN7testing8internal8EqHelper7CompareImiLPv0EEENS_15AssertionResultEPKcS6_RKT_RKT0_
FNDA:0,_ZN7testing8internal18CmpHelperOpFailureINSt7__cxx1112basic_stringIcSt11char_traitsIcESaIcEEES7_EENS_15AssertionResultEPKcSA_RKT_RKT0_SA_
FNDA:0,_ZN7testing8internal18CmpHelperOpFailureIiiEENS_15AssertionResultEPKcS4_RKT_RKT0_S4_
FNDA:1,_ZN7testing8internal11CmpHelperNEINSt7__cxx1112basic_stringIcSt11char_traitsIcESaIcEEES7_EENS_15AssertionResultEPKcSA_RKT_RKT0_
FNDA:2,_ZN7testing8internal11CmpHelperNEIiiEENS_15AssertionResultEPKcS4_RKT_RKT0_
FNDA:1,_ZN7testing8internal11CmpHelperLEIiiEENS_15AssertionResultEPKcS4_RKT_RKT0_
FNDA:2,_ZN7testing8internal11CmpHelperLTINSt7__cxx1112basic_stringIcSt11char_traitsIcESaIcEEES7_EENS_15AssertionResultEPKcSA_RKT_RKT0_
FNDA:2,_ZN7testing8internal11CmpHelperLTIiiEENS_15AssertionResultEPKcS4_RKT_RKT0_
FNDA:4,_ZN7testing8internal11CmpHelperGEIiiEENS_15AssertionResultEPKcS4_RKT_RKT0_
FNDA:1,_ZN7testing8internal11CmpHelperGTINSt7__cxx1112basic_stringIcSt11char_traitsIcESaIcEEES7_EENS_15AssertionResultEPKcSA_RKT_RKT0_
FNDA:1,_ZN7testing8internal11CmpHelperGTIiiEENS_15AssertionResultEPKcS4_RKT_RKT0_
FNDA:7,_Z13RUN_ALL_TESTSv
FNDA:0,_ZN7testing4Test14SetUpTestSuiteEv
FNDA:0,_ZN7testing4Test17TearDownTestSuiteEv
FNDA:0,_ZN7testing4Test16TearDownTestCaseEv
FNDA:0,_ZN7testing4Test13SetUpTestCaseEv
FNDA:0,_ZN7testing4Test5SetupEv
FNF:40
FNH:25
BRDA:1378,0,0,-
BRDA:1378,e0,1,-
BRDA:1379,0,0,-
BRDA:1379,e0,1,-
BRDA:1379,0,2,-
BRDA:1379,e0,3,-
BRDA:1394,0,0,61
BRDA:1394,0,1,0
BRDA:1446,0,0,-
BRDA:1446,e0,1,-
BRDA:1447,0,0,-
BRDA:1447,e0,1,-
BRDA:1447,0,2,-
BRDA:1447,e0,3,-
BRDA:1447,0,4,-
BRDA:1447,e0,5,-
BRDA:1447,0,6,-
BRDA:1447,e0,7,-
BRDA:1447,0,8,-
BRDA:1447,e0,9,-
BRDA:1447,0,10,-
BRDA:1447,e0,11,-
BRDA:1448,0,0,-
BRDA:1448,e0,1,-
BRDA:1448,0,2,-
BRDA:1448,e0,3,-
BRDA:1448,0,4,-
BRDA:1448,e0,5,-
BRDA:1449,0,0,-
BRDA:1449,e0,1,-
BRDA:1449,0,2,-
BRDA:1449,e0,3,-
BRDA:1449,0,4,-
BRDA:1449,e0,5,-
BRDA:1449,0,6,-
BRDA:1449,e0,7,-
BRDA:1472,0,0,3
BRDA:1472,0,1,0
BRDA:1474,0,0,1
BRDA:1474,0,1,0
BRDA:1476,0,0,4
BRDA:1476,0,1,0
BRDA:1478,0,0,4
BRDA:1478,0,1,0
BRDA:1480,0,0,2
BRDA:1480,0,1,0
BRF:46
BRH:6
DA:255,0
DA:263,0
DA:268,0
DA:269,0
DA:356,0
DA:1374,0
DA:1378,0
DA:1379,0
DA:1391,61
DA:1394,61
DA:1395,61
DA:1398,0
DA:1410,61
DA:1413,61
DA:1443,0
DA:1446,0
DA:1447,0
DA:1448,0
DA:1449,0
DA:1472,3
DA:1474,1
DA:1476,4
DA:1478,4
DA:1480,2
DA:2334,7
LF:25
LH:11
end_of_record
TN:
SF:/usr/include/gtest/internal/gtest-internal.h
FN:418,424,_ZN7testing8internal9GetTypeIdI12MyvectorTestINSt7__cxx1112basic_stringIcSt11char_traitsIcESaIcEEEEEEPKvv
FN:418,424,_ZN7testing8internal9GetTypeIdI12MyvectorTestIiEEEPKvv
FN:418,424,_ZN7testing8internal9GetTypeIdI14LinkedListTestIiEEEPKvv
FN:418,424,_ZN7testing8internal9GetTypeIdI15ForwardListTestIiEEEPKvv
FN:418,424,_ZN7testing8internal9GetTypeIdI8HashTestINSt7__cxx1112basic_stringIcSt11char_traitsIcESaIcEEEEEEPKvv
FN:418,424,_ZN7testing8internal9GetTypeIdI8HashTestIiEEEPKvv
FN:418,424,_ZN7testing8internal9GetTypeIdI9QUEUETestINSt7__cxx1112basic_stringIcSt11char_traitsIcESaIcEEEEEEPKvv
FN:418,424,_ZN7testing8internal9GetTypeIdI9QUEUETestIiEEEPKvv
FN:418,424,_ZN7testing8internal9GetTypeIdI9StackTestINSt7__cxx1112basic_stringIcSt11char_traitsIcESaIcEEEEEEPKvv
FN:418,424,_ZN7testing8internal9GetTypeIdI9StackTestIiEEEPKvv
FN:437,437,_ZN7testing8internal15TestFactoryBaseD0Ev
FN:437,437,_ZN7testing8internal15TestFactoryBaseD2Ev
FN:444,444,_ZN7testing8internal15TestFactoryBaseC2Ev
FN:456,456,_ZN7testing8internal15TestFactoryImplI20FBT_test_isFull_TestE10CreateTestEv
FN:456,456,_ZN7testing8internal15TestFactoryImplI21FBT_test_AddNode_TestE10CreateTestEv
FN:456,456,_ZN7testing8internal15TestFactoryImplI21FBT_test_notFull_TestE10CreateTestEv
FN:456,456,_ZN7testing8internal15TestFactoryImplI22FBT_test_findNode_TestE10CreateTestEv
FN:456,456,_ZN7testing8internal15TestFactoryImplI25FBT_test_Constructor_TestE10CreateTestEv
FN:456,456,_ZN7testing8internal15TestFactoryImplI25test_vector_int_MDEL_TestE10CreateTestEv
FN:456,456,_ZN7testing8internal15TestFactoryImplI26ListTest_DEL_WITH_REM_TestE10CreateTestEv
FN:456,456,_ZN7testing8internal15TestFactoryImplI26flist_ADD_WITH_SEARCH_TestE10CreateTestEv
FN:456,456,_ZN7testing8internal15TestFactoryImplI26flist_DEL_WITH_REMOVE_TestE10CreateTestEv
FN:456,456,_ZN7testing8internal15TestFactoryImplI26test_vector_int_MPUSH_TestE10CreateTestEv
FN:456,456,_ZN7testing8internal15TestFactoryImplI26test_vector_str_MPUSH_TestE10CreateTestEv
FN:456,456,_ZN7testing8internal15TestFactoryImplI28ListTest_ADD_AND_SEARCH_TestE10CreateTestEv
FN:456,456,_ZN7testing8internal15TestFactoryImplI30test_vector_int_MPUSH_IND_TestE10CreateTestEv
FN:456,456,_ZN7testing8internal15TestFactoryImplI30test_vector_str_MPUSH_IND_TestE10CreateTestEv
FN:456,456,_ZN7testing8internal15TestFactoryImplI35hash_int_ALL_OPERATION_FOR_INT_TestE10CreateTestEv
FN:456,456,_ZN7testing8internal15TestFactoryImplI35hash_str_ALL_OPERATION_FOR_STR_TestE10CreateTestEv
FN:456,456,_ZN7testing8internal15TestFactoryImplI35test_vector_int_MGET_WITH_MSET_TestE10CreateTestEv
FN:456,456,_ZN7testing8internal15TestFactoryImplI35test_vector_int_OTHER_ACTIVITY_TestE10CreateTestEv
FN:456,456,_ZN7testing8internal15TestFactoryImplI39stack_str_POP_WITH_OTHER_OPERATION_TestE10CreateTestEv
FN:456,456,_ZN7testing8internal15TestFactoryImplI40stack_int_PUSH_WITH_OTHER_OPERATION_TestE10CreateTestEv
FN:456,456,_ZN7testing8internal15TestFactoryImplI42queue_int_PUSH_WITH_RANDOM_OPERATIONS_TestE10CreateTestEv
FN:456,456,_ZN7testing8internal15TestFactoryImplI42queue_str_PUSH_WITH_RANDOM_OPERATIONS_TestE10CreateTestEv
FN:477,478,_ZN7testing8internal12CodeLocationC2ENSt7__cxx1112basic_stringIcSt11char_traitsIcESaIcEEEi
FN:490,493,_ZN7testing8internal19GetNotDefaultOrNullEPFvvES2_
FN:505,524,_ZN7testing8internal16SuiteApiResolverI12MyvectorTestINSt7__cxx1112basic_stringIcSt11char_traitsIcESaIcEEEEE19GetSetUpCaseOrSuiteEPKci
FN:505,524,_ZN7testing8internal16SuiteApiResolverI12MyvectorTestIiEE19GetSetUpCaseOrSuiteEPKci
FN:505,524,_ZN7testing8internal16SuiteApiResolverI14LinkedListTestIiEE19GetSetUpCaseOrSuiteEPKci
FN:505,524,_ZN7testing8internal16SuiteApiResolverI15ForwardListTestIiEE19GetSetUpCaseOrSuiteEPKci
FN:505,524,_ZN7testing8internal16SuiteApiResolverI8HashTestINSt7__cxx1112basic_stringIcSt11char_traitsIcESaIcEEEEE19GetSetUpCaseOrSuiteEPKci
FN:505,524,_ZN7testing8internal16SuiteApiResolverI8HashTestIiEE19GetSetUpCaseOrSuiteEPKci
FN:505,524,_ZN7testing8internal16SuiteApiResolverI9QUEUETestINSt7__cxx1112basic_stringIcSt11char_traitsIcESaIcEEEEE19GetSetUpCaseOrSuiteEPKci
FN:505,524,_ZN7testing8internal16SuiteApiResolverI9QUEUETestIiEE19GetSetUpCaseOrSuiteEPKci
FN:505,524,_ZN7testing8internal16SuiteApiResolverI9StackTestINSt7__cxx1112basic_stringIcSt11char_traitsIcESaIcEEEEE19GetSetUpCaseOrSuiteEPKci
FN:505,524,_ZN7testing8internal16SuiteApiResolverI9StackTestIiEE19GetSetUpCaseOrSuiteEPKci
FN:505,524,_ZN7testing8internal16SuiteApiResolverINS_4TestEE19GetSetUpCaseOrSuiteEPKci
FN:526,545,_ZN7testing8internal16SuiteApiResolverI12MyvectorTestINSt7__cxx1112basic_stringIcSt11char_traitsIcESaIcEEEEE22GetTearDownCaseOrSuiteEPKci
FN:526,545,_ZN7testing8internal16SuiteApiResolverI12MyvectorTestIiEE22GetTearDownCaseOrSuiteEPKci
FN:526,545,_ZN7testing8internal16SuiteApiResolverI14LinkedListTestIiEE22GetTearDownCaseOrSuiteEPKci
FN:526,545,_ZN7testing8internal16SuiteApiResolverI15ForwardListTestIiEE22GetTearDownCaseOrSuiteEPKci
FN:526,545,_ZN7testing8internal16SuiteApiResolverI8HashTestINSt7__cxx1112basic_stringIcSt11char_traitsIcESaIcEEEEE22GetTearDownCaseOrSuiteEPKci
FN:526,545,_ZN7testing8internal16SuiteApiResolverI8HashTestIiEE22GetTearDownCaseOrSuiteEPKci
FN:526,545,_ZN7testing8internal16SuiteApiResolverI9QUEUETestINSt7__cxx1112basic_stringIcSt11char_traitsIcESaIcEEEEE22GetTearDownCaseOrSuiteEPKci
FN:526,545,_ZN7testing8internal16SuiteApiResolverI9QUEUETestIiEE22GetTearDownCaseOrSuiteEPKci
FN:526,545,_ZN7testing8internal16SuiteApiResolverI9StackTestINSt7__cxx1112basic_stringIcSt11char_traitsIcESaIcEEEEE22GetTearDownCaseOrSuiteEPKci
FN:526,545,_ZN7testing8internal16SuiteApiResolverI9StackTestIiEE22GetTearDownCaseOrSuiteEPKci
FN:526,545,_ZN7testing8internal16SuiteApiResolverINS_4TestEE22GetTearDownCaseOrSuiteEPKci
FN:837,837,_ZN7testing8internal14TrueWithStringC2Ev
FN:840,840,_ZNK7testing8internal14TrueWithStringcvbEv
FNDA:2,_ZN7testing8internal9GetTypeIdI12MyvectorTestINSt7__cxx1112basic_stringIcSt11char_traitsIcESaIcEEEEEEPKvv
FNDA:5,_ZN7testing8internal9GetTypeIdI12MyvectorTestIiEEEPKvv
FNDA:2,_ZN7testing8internal9GetTypeIdI14LinkedListTestIiEEEPKvv
FNDA:2,_ZN7testing8internal9GetTypeIdI15ForwardListTestIiEEEPKvv
FNDA:1,_ZN7testing8internal9GetTypeIdI8HashTestINSt7__cxx1112basic_stringIcSt11char_traitsIcESaIcEEEEEEPKvv
FNDA:1,_ZN7testing8internal9GetTypeIdI8HashTestIiEEEPKvv
FNDA:1,_ZN7testing8internal9GetTypeIdI9QUEUETestINSt7__cxx1112basic_stringIcSt11char_traitsIcESaIcEEEEEEPKvv
FNDA:1,_ZN7testing8internal9GetTypeIdI9QUEUETestIiEEEPKvv
FNDA:1,_ZN7testing8internal9GetTypeIdI9StackTestINSt7__cxx1112basic_stringIcSt11char_traitsIcESaIcEEEEEEPKvv
FNDA:1,_ZN7testing8internal9GetTypeIdI9StackTestIiEEEPKvv
FNDA:0,_ZN7testing8internal15TestFactoryBaseD0Ev
FNDA:22,_ZN7testing8internal15TestFactoryBaseD2Ev
FNDA:22,_ZN7testing8internal15TestFactoryBaseC2Ev
FNDA:1,_ZN7testing8internal15TestFactoryImplI20FBT_test_isFull_TestE10CreateTestEv
FNDA:1,_ZN7testing8internal15TestFactoryImplI21FBT_test_AddNode_TestE10CreateTestEv
FNDA:1,_ZN7testing8internal15TestFactoryImplI21FBT_test_notFull_TestE10CreateTestEv
FNDA:1,_ZN7testing8internal15TestFactoryImplI22FBT_test_findNode_TestE10CreateTestEv
FNDA:1,_ZN7testing8internal15TestFactoryImplI25FBT_test_Constructor_TestE10CreateTestEv
FNDA:1,_ZN7testing8internal15TestFactoryImplI25test_vector_int_MDEL_TestE10CreateTestEv
FNDA:1,_ZN7testing8internal15TestFactoryImplI26ListTest_DEL_WITH_REM_TestE10CreateTestEv
FNDA:1,_ZN7testing8internal15TestFactoryImplI26flist_ADD_WITH_SEARCH_TestE10CreateTestEv
FNDA:1,_ZN7testing8internal15TestFactoryImplI26flist_DEL_WITH_REMOVE_TestE10CreateTestEv
FNDA:1,_ZN7testing8internal15TestFactoryImplI26test_vector_int_MPUSH_TestE10CreateTestEv
FNDA:1,_ZN7testing8internal15TestFactoryImplI26test_vector_str_MPUSH_TestE10CreateTestEv
FNDA:1,_ZN7testing8internal15TestFactoryImplI28ListTest_ADD_AND_SEARCH_TestE10CreateTestEv
FNDA:1,_ZN7testing8internal15TestFactoryImplI30test_vector_int_MPUSH_IND_TestE10CreateTestEv
FNDA:1,_ZN7testing8internal15TestFactoryImplI30test_vector_str_MPUSH_IND_TestE10CreateTestEv
FNDA:1,_ZN7testing8internal15TestFactoryImplI35hash_int_ALL_OPERATION_FOR_INT_TestE10CreateTestEv
FNDA:1,_ZN7testing8internal15TestFactoryImplI35hash_str_ALL_OPERATION_FOR_STR_TestE10CreateTestEv
FNDA:1,_ZN7testing8internal15TestFactoryImplI35test_vector_int_MGET_WITH_MSET_TestE10CreateTestEv
FNDA:1,_ZN7testing8internal15TestFactoryImplI35test_vector_int_OTHER_ACTIVITY_TestE10CreateTestEv
FNDA:1,_ZN7testing8internal15TestFactoryImplI39stack_str_POP_WITH_OTHER_OPERATION_TestE10CreateTestEv
FNDA:1,_ZN7testing8internal15TestFactoryImplI40stack_int_PUSH_WITH_OTHER_OPERATION_TestE10CreateTestEv
FNDA:1,_ZN7testing8internal15TestFactoryImplI42queue_int_PUSH_WITH_RANDOM_OPERATIONS_TestE10CreateTestEv
FNDA:1,_ZN7testing8internal15TestFactoryImplI42queue_str_PUSH_WITH_RANDOM_OPERATIONS_TestE10CreateTestEv
FNDA:22,_ZN7testing8internal12CodeLocationC2ENSt7__cxx1112basic_stringIcSt11char_traitsIcESaIcEEEi
FNDA:88,_ZN7testing8internal19GetNotDefaultOrNullEPFvvES2_
FNDA:2,_ZN7testing8internal16SuiteApiResolverI12MyvectorTestINSt7__cxx1112basic_stringIcSt11char_traitsIcESaIcEEEEE19GetSetUpCaseOrSuiteEPKci
FNDA:5,_ZN7testing8internal16SuiteApiResolverI12MyvectorTestIiEE19GetSetUpCaseOrSuiteEPKci
FNDA:2,_ZN7testing8internal16SuiteApiResolverI14LinkedListTestIiEE19GetSetUpCaseOrSuiteEPKci
FNDA:2,_ZN7testing8internal16SuiteApiResolverI15ForwardListTestIiEE19GetSetUpCaseOrSuiteEPKci
FNDA:1,_ZN7testing8internal16SuiteApiResolverI8HashTestINSt7__cxx1112basic_stringIcSt11char_traitsIcESaIcEEEEE19GetSetUpCaseOrSuiteEPKci
FNDA:1,_ZN7testing8internal16SuiteApiResolverI8HashTestIiEE19GetSetUpCaseOrSuiteEPKci
FNDA:1,_ZN7testing8internal16SuiteApiResolverI9QUEUETestINSt7__cxx1112basic_stringIcSt11char_traitsIcESaIcEEEEE19GetSetUpCaseOrSuiteEPKci
FNDA:1,_ZN7testing8internal16SuiteApiResolverI9QUEUETestIiEE19GetSetUpCaseOrSuiteEPKci
FNDA:1,_ZN7testing8internal16SuiteApiResolverI9StackTestINSt7__cxx1112basic_stringIcSt11char_traitsIcESaIcEEEEE19GetSetUpCaseOrSuiteEPKci
FNDA:1,_ZN7testing8internal16SuiteApiResolverI9StackTestIiEE19GetSetUpCaseOrSuiteEPKci
FNDA:5,_ZN7testing8internal16SuiteApiResolverINS_4TestEE19GetSetUpCaseOrSuiteEPKci
FNDA:2,_ZN7testing8internal16SuiteApiResolverI12MyvectorTestINSt7__cxx1112basic_stringIcSt11char_traitsIcESaIcEEEEE22GetTearDownCaseOrSuiteEPKci
FNDA:5,_ZN7testing8internal16SuiteApiResolverI12MyvectorTestIiEE22GetTearDownCaseOrSuiteEPKci
FNDA:2,_ZN7testing8internal16SuiteApiResolverI14LinkedListTestIiEE22GetTearDownCaseOrSuiteEPKci
FNDA:2,_ZN7testing8internal16SuiteApiResolverI15ForwardListTestIiEE22GetTearDownCaseOrSuiteEPKci
FNDA:1,_ZN7testing8internal16SuiteApiResolverI8HashTestINSt7__cxx1112basic_stringIcSt11char_traitsIcESaIcEEEEE22GetTearDownCaseOrSuiteEPKci
FNDA:1,_ZN7testing8internal16SuiteApiResolverI8HashTestIiEE22GetTearDownCaseOrSuiteEPKci
FNDA:1,_ZN7testing8internal16SuiteApiResolverI9QUEUETestINSt7__cxx1112basic_stringIcSt11char_traitsIcESaIcEEEEE22GetTearDownCaseOrSuiteEPKci
FNDA:1,_ZN7testing8internal16SuiteApiResolverI9QUEUETestIiEE22GetTearDownCaseOrSuiteEPKci
FNDA:1,_ZN7testing8internal16SuiteApiResolverI9StackTestINSt7__cxx1112basic_stringIcSt11char_traitsIcESaIcEEEEE22GetTearDownCaseOrSuiteEPKci
FNDA:1,_ZN7testing8internal16SuiteApiResolverI9StackTestIiEE22GetTearDownCaseOrSuiteEPKci
FNDA:5,_ZN7testing8internal16SuiteApiResolverINS_4TestEE22GetTearDownCaseOrSuiteEPKci
FNDA:8,_ZN7testing8internal14TrueWithStringC2Ev
FNDA:8,_ZNK7testing8internal14TrueWithStringcvbEv
FNF:61
FNH:60
BRDA:456,0,0,22
BRDA:456,e0,1,0
BRDA:456,0,2,0
BRDA:456,0,3,0
BRDA:492,0,0,0
BRDA:492,0,1,88
BRDA:513,0,0,0
BRDA:513,0,1,22
BRDA:513,0,2,0
BRDA:513,0,3,0
BRDA:513,0,4,0
BRDA:513,0,5,22
BRDA:513,0,6,0
BRDA:513,e0,7,0
BRDA:516,0,0,-
BRDA:516,e0,1,-
BRDA:516,0,2,-
BRDA:516,e0,3,-
BRDA:516,0,4,-
BRDA:516,e0,5,-
BRDA:516,0,6,-
BRDA:516,e0,7,-
BRDA:516,0,8,-
BRDA:516,e0,9,-
BRDA:518,0,0,0
BRDA:518,0,1,22
BRDA:534,0,0,0
BRDA:534,0,1,22
BRDA:534,0,2,0
BRDA:534,0,3,0
BRDA:534,0,4,0
BRDA:534,0,5,22
BRDA:534,0,6,0
BRDA:534,e0,7,0
BRDA:537,0,0,-
BRDA:537,e0,1,-
BRDA:537,0,2,-
BRDA:537,e0,3,-
BRDA:537,0,4,-
BRDA:537,e0,5,-
BRDA:537,0,6,-
BRDA:537,e0,7,-
BRDA:537,0,8,-
BRDA:537,e0,9,-
BRDA:539,0,0,0
BRDA:539,0,1,22
BRF:46
BRH:8
DA:418,17
DA:423,17
DA:437,22
DA:444,22
DA:456,22
DA:477,22
DA:478,22
DA:490,88
DA:492,88
DA:505,22
DA:509,22
DA:511,22
DA:513,22
DA:516,0
DA:518,22
DA:526,22
DA:530,22
DA:532,22
DA:534,22
DA:537,0
DA:539,22
DA:837,8
DA:840,8
LF:23
LH:21
end_of_record
TN:
SF:/usr/include/gtest/internal/gtest-port.h
FN:1014,1014,_ZN7testing8internal2REC2ERKNSt7__cxx1112basic_stringIcSt11char_traitsIcESaIcEEE
FN:1020,1020,_ZNK7testing8internal2RE7patternEv
FN:1026,1028,_ZN7testing8internal2RE9FullMatchERKNSt7__cxx1112basic_stringIcSt11char_traitsIcESaIcEEERKS1_
FN:1029,1031,_ZN7testing8internal2RE12PartialMatchERKNSt7__cxx1112basic_stringIcSt11char_traitsIcESaIcEEERKS1_
FN:1083,1083,_ZN7testing8internal8GTestLog9GetStreamEv
FNDA:2,_ZN7testing8internal2REC2ERKNSt7__cxx1112basic_stringIcSt11char_traitsIcESaIcEEE
FNDA:0,_ZNK7testing8internal2RE7patternEv
FNDA:2,_ZN7testing8internal2RE9FullMatchERKNSt7__cxx1112basic_stringIcSt11char_traitsIcESaIcEEERKS1_
FNDA:0,_ZN7testing8internal2RE12PartialMatchERKNSt7__cxx1112basic_stringIcSt11char_traitsIcESaIcEEERKS1_
FNDA:0,_ZN7testing8internal8GTestLog9GetStreamEv
FNF:5
FNH:2
BRDA:1014,0,0,2
BRDA:1014,e0,1,0
BRF:2
BRH:1
DA:1014,2
DA:1020,0
DA:1026,2
DA:1027,2
DA:1029,0
DA:1030,0
DA:1083,0
LF:7
LH:3
end_of_record
TN:
SF:/usr/include/gtest/internal/gtest-type-util.h
FN:129,135,_ZN7testing8internal11GetTypeNameIKNSt7__cxx1112basic_stringIcSt11char_traitsIcESaIcEEEEES7_v
FN:61,87,_ZN7testing8internal31CanonicalizeForStdLibVersioningENSt7__cxx1112basic_stringIcSt11char_traitsIcESaIcEEE
FN:91,121,_ZN7testing8internal11GetTypeNameB5cxx11ERKSt9type_info
FNDA:0,_ZN7testing8internal11GetTypeNameIKNSt7__cxx1112basic_stringIcSt11char_traitsIcESaIcEEEEES7_v
FNDA:0,_ZN7testing8internal31CanonicalizeForStdLibVersioningENSt7__cxx1112basic_stringIcSt11char_traitsIcESaIcEEE
FNDA:0,_ZN7testing8internal11GetTypeNameB5cxx11ERKSt9type_info
FNF:3
FNH:0
BRDA:63,0,0,-
BRDA:63,0,1,-
BRDA:65,0,0,-
BRDA:65,0,1,-
BRDA:79,0,0,-
BRDA:79,0,1,-
BRDA:100,0,0,-
BRDA:100,e0,1,-
BRDA:101,0,0,-
BRDA:101,0,1,-
BRDA:101,0,2,-
BRDA:101,e0,3,-
BRDA:103,0,0,-
BRDA:103,e0,1,-
BRDA:103,0,2,-
BRDA:103,e0,3,-
BRF:16
BRH:0
DA:61,0
DA:63,0
DA:64,0
DA:65,0
DA:67,0
DA:74,0
DA:75,0
DA:78,0
DA:79,0
DA:80,0
DA:83,0
DA:84,0
DA:86,0
DA:91,0
DA:92,0
DA:94,0
DA:100,0
DA:101,0
DA:102,0
DA:103,0
DA:121,0
DA:129,0
DA:131,0
LF:23
LH:0
end_of_record
TN:
SF:/usr/include/x86_64-linux-gnu/c++/14/bits/c++config.h
FNF:0
FNH:0
DA:550,3582
DA:606,0
LF:2
LH:1
end_of_record
